(dp1
S'output'
p2
S"<type 'exceptions.NameError'> name 'right_sidebar_enabled' is not defined"
p3
sS'layer'
p4
S'/Applications/web2py.app/Contents/Resources/applications/Worksheet_App/views/default/index.html'
p5
sS'code'
p6
S'left_sidebar_enabled=False,right_sidebar_enabled,(\'message\' in globals())\nresponse.write(\'\\n\', escape=False)\nresponse.write(\'<!--[if HTML5]><![endif]-->\\n<!DOCTYPE html>\\n<!-- paulirish.com/2008/conditional-stylesheets-vs-css-hacks-answer-neither/ -->\\n<!--[if lt IE 7]><html class="ie ie6 ie-lte9 ie-lte8 ie-lte7 no-js" lang="\', escape=False)\nresponse.write(T.accepted_language or \'en\')\nresponse.write(\'"> <![endif]-->\\n<!--[if IE 7]><html class="ie ie7 ie-lte9 ie-lte8 ie-lte7 no-js" lang="\', escape=False)\nresponse.write(T.accepted_language or \'en\')\nresponse.write(\'"> <![endif]-->\\n<!--[if IE 8]><html class="ie ie8 ie-lte9 ie-lte8 no-js" lang="\', escape=False)\nresponse.write(T.accepted_language or \'en\')\nresponse.write(\'"> <![endif]-->\\n<!--[if IE 9]><html class="ie9 ie-lte9 no-js" lang="\', escape=False)\nresponse.write(T.accepted_language or \'en\')\nresponse.write(\'"> <![endif]-->\\n<!--[if (gt IE 9)|!(IE)]><!--> <html class="no-js" lang="\', escape=False)\nresponse.write(T.accepted_language or \'en\')\nresponse.write(\'"> <!--<![endif]-->\\n<head>\\n<title>\', escape=False)\nresponse.write(response.title or request.application)\nresponse.write(\'</title>\\n  <!--[if !HTML5]>\\n      <meta http-equiv="X-UA-Compatible" content="IE=edge\', escape=False)\nresponse.write(not request.is_local and \',chrome=1\' or \'\')\nresponse.write(\'">\\n  <![endif]-->\\n  <!-- www.phpied.com/conditional-comments-block-downloads/ -->\\n  <!-- Always force latest IE rendering engine\\n       (even in intranet) & Chrome Frame\\n       Remove this if you use the .htaccess -->\\n\\t   \\n  <meta charset="utf-8" />\\n\\n  <!-- http://dev.w3.org/html5/markup/meta.name.html -->\\n  <meta name="application-name" content="\', escape=False)\nresponse.write(request.application)\nresponse.write(\'" />\\n\\n  <!-- Speaking of Google, don\\\'t forget to set your site up:\\n       http://google.com/webmasters -->\\n  <meta name="google-site-verification" content="" />\\n\\n  <!--  Mobile Viewport Fix\\n        j.mp/mobileviewport & davidbcalhoun.com/2010/viewport-metatag\\n        device-width: Occupy full width of the screen in its current orientation\\n        initial-scale = 1.0 retains dimensions instead of zooming out if page height > device height\\n        user-scalable = yes allows the user to zoom in -->\\n  <meta name="viewport" content="width=device-width, initial-scale=1.0" />\\n\\n  <link rel="shortcut icon" href="\', escape=False)\nresponse.write(URL(\'static\',\'images/favicon.ico\'))\nresponse.write(\'" type="image/x-icon">\\n  <link rel="apple-touch-icon" href="\', escape=False)\nresponse.write(URL(\'static\',\'images/favicon.png\'))\nresponse.write(\'">\\n\\n  <!-- All JavaScript at the bottom, except for Modernizr which enables\\n       HTML5 elements & feature detects -->\\n  <script src="\', escape=False)\nresponse.write(URL(\'static\',\'js/modernizr.custom.js\'))\nresponse.write(\'"></script>\\n\\n  <!-- include stylesheets -->\\n  \', escape=False)\nresponse.files.insert(0,URL(\'static\',\'css/web2py.css\'))\nresponse.files.insert(1,URL(\'static\',\'css/bootstrap.min.css\'))\nresponse.files.insert(2,URL(\'static\',\'css/bootstrap-responsive.min.css\'))\nresponse.files.insert(3,URL(\'static\',\'css/web2py_bootstrap.css\'))\nresponse.write(\'\\n\\n  \', escape=False)\nresponse.write(\'<script type="text/javascript"><!--\\n    // These variables are used by the web2py_ajax_init function in web2py_ajax.js (which is loaded below).\\n    var w2p_ajax_confirm_message = "\', escape=False)\nresponse.write(T(\'Are you sure you want to delete this object?\'))\nresponse.write(\'";\\n    var w2p_ajax_disable_with_message = "\', escape=False)\nresponse.write(T(\'Working...\'))\nresponse.write(\'";\\n    var w2p_ajax_date_format = "\', escape=False)\nresponse.write(T(\'%Y-%m-%d\'))\nresponse.write(\'";\\n    var w2p_ajax_datetime_format = "\', escape=False)\nresponse.write(T(\'%Y-%m-%d %H:%M:%S\'))\nresponse.write(\'";\\n    var ajax_error_500 = \\\'\', escape=False)\nresponse.write(T.M(\'An error occured, please [[reload %s]] the page\') % URL(args=request.args, vars=request.get_vars))\nresponse.write("\'\\n    //--></script>\\n", escape=False)\nresponse.files.insert(0,URL(\'static\',\'js/jquery.js\'))\nresponse.files.insert(1,URL(\'static\',\'css/calendar.css\'))\nresponse.files.insert(2,URL(\'static\',\'js/calendar.js\'))\nresponse.files.insert(3,URL(\'static\',\'js/web2py.js\'))\nresponse.include_meta()\nresponse.include_files()\nresponse.write(\'\\n\', escape=False)\nresponse.write(\'\\n\\n  \', escape=False)\n# using sidebars need to know what sidebar you want to use\nleft_sidebar_enabled = globals().get(\'left_sidebar_enabled\',False)\nright_sidebar_enabled = globals().get(\'right_sidebar_enabled\',False)\nmiddle_columns = {0:\'span12\',1:\'span9\',2:\'span6\'}[\n(left_sidebar_enabled and 1 or 0)+(right_sidebar_enabled and 1 or 0)]\nresponse.write(\'\\n\\n  <!-- uncomment here to load jquery-ui\\n       <link rel="stylesheet" href="http://ajax.googleapis.com/ajax/libs/jqueryui/1.10.3/themes/ui-lightness/jquery-ui.css" type="text/css" media="all" />\\n       <script src="http://ajax.googleapis.com/ajax/libs/jqueryui/1.10.3/jquery-ui.min.js" type="text/javascript"></script>\\n       uncomment to load jquery-ui //-->\\n  <noscript><link href="\', escape=False)\nresponse.write(URL(\'static\', \'css/web2py_bootstrap_nojs.css\'))\nresponse.write(\'" rel="stylesheet" type="text/css" /></noscript>\\n  \', escape=False)\nresponse.write(\'\\n</head>\\n\\n<body>\\n  <!-- Navbar ================================================== -->\\n  <div class="navbar navbar-inverse">\\n    <div class="flash">\', escape=False)\nresponse.write(response.flash or \'\')\nresponse.write(\'</div>\\n    <div class="navbar-inner">\\n      <div class="container">\\n        \', escape=False)\nis_mobile=request.user_agent().is_mobile\nresponse.write(\'\\n        <!-- the next tag is necessary for bootstrap menus, do not remove -->\\n        <button type="button" class="btn btn-navbar" data-toggle="collapse" data-target=".nav-collapse" style="\', escape=False)\nresponse.write(\'display:none;\' if not is_mobile else \'\')\nresponse.write(\'">\\n          <span class="icon-bar"></span>\\n          <span class="icon-bar"></span>\\n          <span class="icon-bar"></span>\\n        </button>\\n        \', escape=False)\nresponse.write(response.logo or \'\')\nresponse.write(\'\\n        <ul id="navbar" class="nav pull-right">\', escape=False)\nresponse.write(\'auth\' in globals() and auth.navbar(mode="dropdown") or \'\')\nresponse.write(\'</ul>\\n        <div class="\', escape=False)\nresponse.write(\'nav-collapse\' if is_mobile else \'nav\')\nresponse.write(\'">\\n          \', escape=False)\nif response.menu:\n    response.write(\'\\n          \', escape=False)\n    response.write(MENU(response.menu, _class=\'mobile-menu nav\' if is_mobile else \'nav\',mobile=is_mobile,li_class=\'dropdown\',ul_class=\'dropdown-menu\'))\n    response.write(\'\\n          \', escape=False)\n    pass\nresponse.write(\'\\n        </div><!--/.nav-collapse -->\\n      </div>\\n    </div>\\n  </div><!--/top navbar -->\\n\\n  <div class="container">\\n    <!-- Masthead ================================================== -->\\n    <header class="mastheader row" id="header">\\n      \', escape=False)\nif response.title:\n    response.write(\'\\n        <div class="span12">\\n            <div class="page-header">\\n                <h1>\\n                    \', escape=False)\n    response.write(response.title)\n    response.write(\'\\n                    <small>\', escape=False)\n    response.write(response.subtitle or \'\')\n    response.write(\'</small>\\n                </h1>\\n            </div>\\n        </div>\\n\\t\', escape=False)\n    pass\nresponse.write(\'\\n    </header>\\n\\n    <section id="main" class="main row">\\n        \', escape=False)\nif left_sidebar_enabled:\n    response.write(\'\\n        <div class="span3 left-sidebar">\\n            \', escape=False)\n    response.write(\'\\n            <h3>Left Sidebar</h3>\\n            <p></p>\\n            \', escape=False)\n    response.write(\'\\n        </div>\\n        \', escape=False)\n    pass\nresponse.write(\'\\n\\n        <div class="\', escape=False)\nresponse.write(middle_columns)\nresponse.write(\'">\\n            \', escape=False)\nresponse.write(\'\\n            \', escape=False)\nresponse.write(\'\\n\', escape=False)\nresponse.write(\'\\n            \', escape=False)\nresponse.write(\'\\n        </div>\\n\\n        \', escape=False)\nif right_sidebar_enabled:\n    response.write(\'\\n        <div class="span3">\\n            \', escape=False)\n    response.write(\'\\n            <h3>Right Sidebar</h3>\\n            <p></p>\\n            \', escape=False)\n    response.write(\'\\n        </div>\\n        \', escape=False)\n    pass\nresponse.write(\'\\n    </section><!--/main-->\\n\\n    <!-- Footer ================================================== -->\\n    <div class="row">\\n        <footer class="footer span12" id="footer">\\n            <div class="footer-content">\\n                \', escape=False)\nresponse.write(\' <!-- this is default footer -->\\n                <div class="copyright pull-left">\', escape=False)\nresponse.write(T(\'Copyright\'))\nresponse.write(\' &#169; \', escape=False)\nresponse.write(request.now.year)\nresponse.write(\'</div>\\n                <div id="poweredBy" class="pull-right">\\n                    \', escape=False)\nresponse.write(T(\'Powered by\'))\nresponse.write(\'\\n                    <a href="http://www.web2py.com/">web2py</a>\\n                </div>\\n                \', escape=False)\nresponse.write(\'\\n            </div>\\n        </footer>\\n    </div>\\n\\n  </div> <!-- /container -->\\n\\n  <!-- The javascript =============================================\\n       (Placed at the end of the document so the pages load faster) -->\\n  <script src="\', escape=False)\nresponse.write(URL(\'static\',\'js/bootstrap.min.js\'))\nresponse.write(\'"></script>\\n  <script src="\', escape=False)\nresponse.write(URL(\'static\',\'js/web2py_bootstrap.js\'))\nresponse.write(\'"></script>\\n  <!--[if lt IE 7 ]>\\n      <script src="\', escape=False)\nresponse.write(URL(\'static\',\'js/dd_belatedpng.js\'))\nresponse.write(\'"></script>\\n      <script> DD_belatedPNG.fix(\\\'img, .png_bg\\\'); //fix any <img> or .png_bg background-images </script>\\n      <![endif]-->\\n  \\n  \', escape=False)\nif response.google_analytics_id:\n    response.write("\\n  <!-- Google Analytics -->\\n  <script>\\n    (function(i,s,o,g,r,a,m){i[\'GoogleAnalyticsObject\']=r;i[r]=i[r]||function(){\\n(i[r].q=i[r].q||[]).push(arguments)},i[r].l=1*new Date();a=s.createElement(o),\\nm=s.getElementsByTagName(o)[0];a.async=1;a.src=g;m.parentNode.insertBefore(a,m)\\n})(window,document,\'script\',\'//www.google-analytics.com/analytics.js\',\'ga\');\\n    ga(\'create\', \'", escape=False)\n    response.write(response.google_analytics_id)\n    response.write("\', \'auto\');\\n    ga(\'send\', \'pageview\');\\n  </script>\\n  <!-- End Google Analytics -->\\n  ", escape=False)\n    pass\nresponse.write(\'\\n  <script src="\', escape=False)\nresponse.write(URL(\'static\',\'js/share.js\',vars=dict(static=URL(\'static\',\'images\'))))\nresponse.write(\'"></script>\\n</body>\\n</html>\\n\\n\', escape=False)'
p7
sS'snapshot'
p8
(dp9
S'exception'
p10
(dp11
S'__hash__'
p12
S"<method-wrapper '__hash__' of exceptions.NameError object>"
p13
sS'__setattr__'
p14
S"<method-wrapper '__setattr__' of exceptions.NameError object>"
p15
sS'__reduce_ex__'
p16
S'<built-in method __reduce_ex__ of exceptions.NameError object>'
p17
sS'__getslice__'
p18
S"<method-wrapper '__getslice__' of exceptions.NameError object>"
p19
sS'__getitem__'
p20
S"<method-wrapper '__getitem__' of exceptions.NameError object>"
p21
sS'__setstate__'
p22
S'<built-in method __setstate__ of exceptions.NameError object>'
p23
sS'args'
p24
S'("name \'right_sidebar_enabled\' is not defined",)'
p25
sS'__reduce__'
p26
S'<built-in method __reduce__ of exceptions.NameError object>'
p27
sS'__str__'
p28
S"<method-wrapper '__str__' of exceptions.NameError object>"
p29
sS'__format__'
p30
S'<built-in method __format__ of exceptions.NameError object>'
p31
sS'__getattribute__'
p32
S"<method-wrapper '__getattribute__' of exceptions.NameError object>"
p33
sS'__class__'
p34
S"<type 'exceptions.NameError'>"
p35
sS'__unicode__'
p36
S'<built-in method __unicode__ of exceptions.NameError object>'
p37
sS'__delattr__'
p38
S"<method-wrapper '__delattr__' of exceptions.NameError object>"
p39
sS'__subclasshook__'
p40
S'<built-in method __subclasshook__ of type object>'
p41
sS'__repr__'
p42
S"<method-wrapper '__repr__' of exceptions.NameError object>"
p43
sS'__dict__'
p44
S'{}'
p45
sS'__sizeof__'
p46
S'<built-in method __sizeof__ of exceptions.NameError object>'
p47
sS'__doc__'
p48
S"'Name not found globally.'"
p49
sS'__init__'
p50
S"<method-wrapper '__init__' of exceptions.NameError object>"
p51
sS'__new__'
p52
S'<built-in method __new__ of type object>'
p53
ssS'evalue'
p54
S"name 'right_sidebar_enabled' is not defined"
p55
sS'request'
p56
cgluon.html
XML_unpickle
p57
(S's\xb4p\x00\x00<div><table><tr><td style="font-weight:bold;vertical-align:top;">ajax</td><td style="vertical-align:top;">:</td><td><div>False</div></td></tr><tr><td style="font-weight:bold;vertical-align:top;">application</td><td style="vertical-align:top;">:</td><td><div>Worksheet_App</div></td></tr><tr><td style="font-weight:bold;vertical-align:top;">args</td><td style="vertical-align:top;">:</td><td><div><table></table></div></td></tr><tr><td style="font-weight:bold;vertical-align:top;">cid</td><td style="vertical-align:top;">:</td><td><div>None</div></td></tr><tr><td style="font-weight:bold;vertical-align:top;">client</td><td style="vertical-align:top;">:</td><td><div>127.0.0.1</div></td></tr><tr><td style="font-weight:bold;vertical-align:top;">controller</td><td style="vertical-align:top;">:</td><td><div>default</div></td></tr><tr><td style="font-weight:bold;vertical-align:top;">cookies</td><td style="vertical-align:top;">:</td><td><div><table><tr><td style="font-weight:bold;vertical-align:top;">session_id_admin</td><td style="vertical-align:top;">:</td><td><div>127.0.0.1-e49dbaf6-2f05-4c38-9a0b-4a244a891744<table><tr><td style="font-weight:bold;vertical-align:top;">comment</td><td style="vertical-align:top;">:</td><td><div></div></td></tr><tr><td style="font-weight:bold;vertical-align:top;">domain</td><td style="vertical-align:top;">:</td><td><div></div></td></tr><tr><td style="font-weight:bold;vertical-align:top;">expires</td><td style="vertical-align:top;">:</td><td><div></div></td></tr><tr><td style="font-weight:bold;vertical-align:top;">httponly</td><td style="vertical-align:top;">:</td><td><div></div></td></tr><tr><td style="font-weight:bold;vertical-align:top;">max-age</td><td style="vertical-align:top;">:</td><td><div></div></td></tr><tr><td style="font-weight:bold;vertical-align:top;">path</td><td style="vertical-align:top;">:</td><td><div></div></td></tr><tr><td style="font-weight:bold;vertical-align:top;">secure</td><td style="vertical-align:top;">:</td><td><div></div></td></tr><tr><td style="font-weight:bold;vertical-align:top;">version</td><td style="vertical-align:top;">:</td><td><div></div></td></tr></table></div></td></tr><tr><td style="font-weight:bold;vertical-align:top;">session_id_genr8r_v3</td><td style="vertical-align:top;">:</td><td><div>127.0.0.1-82415e2c-bada-4b0a-8b36-b8ca78e12901<table><tr><td style="font-weight:bold;vertical-align:top;">comment</td><td style="vertical-align:top;">:</td><td><div></div></td></tr><tr><td style="font-weight:bold;vertical-align:top;">domain</td><td style="vertical-align:top;">:</td><td><div></div></td></tr><tr><td style="font-weight:bold;vertical-align:top;">expires</td><td style="vertical-align:top;">:</td><td><div></div></td></tr><tr><td style="font-weight:bold;vertical-align:top;">httponly</td><td style="vertical-align:top;">:</td><td><div></div></td></tr><tr><td style="font-weight:bold;vertical-align:top;">max-age</td><td style="vertical-align:top;">:</td><td><div></div></td></tr><tr><td style="font-weight:bold;vertical-align:top;">path</td><td style="vertical-align:top;">:</td><td><div></div></td></tr><tr><td style="font-weight:bold;vertical-align:top;">secure</td><td style="vertical-align:top;">:</td><td><div></div></td></tr><tr><td style="font-weight:bold;vertical-align:top;">version</td><td style="vertical-align:top;">:</td><td><div></div></td></tr></table></div></td></tr><tr><td style="font-weight:bold;vertical-align:top;">session_id_new_tracks</td><td style="vertical-align:top;">:</td><td><div>127.0.0.1-42bf15f9-7068-4c67-8bbe-37bd8c7c7d32<table><tr><td style="font-weight:bold;vertical-align:top;">comment</td><td style="vertical-align:top;">:</td><td><div></div></td></tr><tr><td style="font-weight:bold;vertical-align:top;">domain</td><td style="vertical-align:top;">:</td><td><div></div></td></tr><tr><td style="font-weight:bold;vertical-align:top;">expires</td><td style="vertical-align:top;">:</td><td><div></div></td></tr><tr><td style="font-weight:bold;vertical-align:top;">httponly</td><td style="vertical-align:top;">:</td><td><div></div></td></tr><tr><td style="font-weight:bold;vertical-align:top;">max-age</td><td style="vertical-align:top;">:</td><td><div></div></td></tr><tr><td style="font-weight:bold;vertical-align:top;">path</td><td style="vertical-align:top;">:</td><td><div></div></td></tr><tr><td style="font-weight:bold;vertical-align:top;">secure</td><td style="vertical-align:top;">:</td><td><div></div></td></tr><tr><td style="font-weight:bold;vertical-align:top;">version</td><td style="vertical-align:top;">:</td><td><div></div></td></tr></table></div></td></tr><tr><td style="font-weight:bold;vertical-align:top;">session_id_welcome</td><td style="vertical-align:top;">:</td><td><div>127.0.0.1-95c3d7fe-12c8-4ae6-bb1c-8c154099d150<table><tr><td style="font-weight:bold;vertical-align:top;">comment</td><td style="vertical-align:top;">:</td><td><div></div></td></tr><tr><td style="font-weight:bold;vertical-align:top;">domain</td><td style="vertical-align:top;">:</td><td><div></div></td></tr><tr><td style="font-weight:bold;vertical-align:top;">expires</td><td style="vertical-align:top;">:</td><td><div></div></td></tr><tr><td style="font-weight:bold;vertical-align:top;">httponly</td><td style="vertical-align:top;">:</td><td><div></div></td></tr><tr><td style="font-weight:bold;vertical-align:top;">max-age</td><td style="vertical-align:top;">:</td><td><div></div></td></tr><tr><td style="font-weight:bold;vertical-align:top;">path</td><td style="vertical-align:top;">:</td><td><div></div></td></tr><tr><td style="font-weight:bold;vertical-align:top;">secure</td><td style="vertical-align:top;">:</td><td><div></div></td></tr><tr><td style="font-weight:bold;vertical-align:top;">version</td><td style="vertical-align:top;">:</td><td><div></div></td></tr></table></div></td></tr><tr><td style="font-weight:bold;vertical-align:top;">session_id_worksheet_app</td><td style="vertical-align:top;">:</td><td><div>127.0.0.1-20a70db0-5e7b-4650-b88e-144e89f782eb<table><tr><td style="font-weight:bold;vertical-align:top;">comment</td><td style="vertical-align:top;">:</td><td><div></div></td></tr><tr><td style="font-weight:bold;vertical-align:top;">domain</td><td style="vertical-align:top;">:</td><td><div></div></td></tr><tr><td style="font-weight:bold;vertical-align:top;">expires</td><td style="vertical-align:top;">:</td><td><div></div></td></tr><tr><td style="font-weight:bold;vertical-align:top;">httponly</td><td style="vertical-align:top;">:</td><td><div></div></td></tr><tr><td style="font-weight:bold;vertical-align:top;">max-age</td><td style="vertical-align:top;">:</td><td><div></div></td></tr><tr><td style="font-weight:bold;vertical-align:top;">path</td><td style="vertical-align:top;">:</td><td><div></div></td></tr><tr><td style="font-weight:bold;vertical-align:top;">secure</td><td style="vertical-align:top;">:</td><td><div></div></td></tr><tr><td style="font-weight:bold;vertical-align:top;">version</td><td style="vertical-align:top;">:</td><td><div></div></td></tr></table></div></td></tr><tr><td style="font-weight:bold;vertical-align:top;">session_id_workshop_manager</td><td style="vertical-align:top;">:</td><td><div>127.0.0.1-41189d15-1269-426c-b6f9-635e2b98f512<table><tr><td style="font-weight:bold;vertical-align:top;">comment</td><td style="vertical-align:top;">:</td><td><div></div></td></tr><tr><td style="font-weight:bold;vertical-align:top;">domain</td><td style="vertical-align:top;">:</td><td><div></div></td></tr><tr><td style="font-weight:bold;vertical-align:top;">expires</td><td style="vertical-align:top;">:</td><td><div></div></td></tr><tr><td style="font-weight:bold;vertical-align:top;">httponly</td><td style="vertical-align:top;">:</td><td><div></div></td></tr><tr><td style="font-weight:bold;vertical-align:top;">max-age</td><td style="vertical-align:top;">:</td><td><div></div></td></tr><tr><td style="font-weight:bold;vertical-align:top;">path</td><td style="vertical-align:top;">:</td><td><div></div></td></tr><tr><td style="font-weight:bold;vertical-align:top;">secure</td><td style="vertical-align:top;">:</td><td><div></div></td></tr><tr><td style="font-weight:bold;vertical-align:top;">version</td><td style="vertical-align:top;">:</td><td><div></div></td></tr></table></div></td></tr></table></div></td></tr><tr><td style="font-weight:bold;vertical-align:top;">env</td><td style="vertical-align:top;">:</td><td><div><table><tr><td style="font-weight:bold;vertical-align:top;">HTTP_ACCEPT</td><td style="vertical-align:top;">:</td><td><div>text/html,application/xhtml+xml,application/xml;q=0.9,image/webp,*/*;q=0.8</div></td></tr><tr><td style="font-weight:bold;vertical-align:top;">HTTP_ACCEPT_ENCODING</td><td style="vertical-align:top;">:</td><td><div>gzip, deflate, sdch</div></td></tr><tr><td style="font-weight:bold;vertical-align:top;">HTTP_ACCEPT_LANGUAGE</td><td style="vertical-align:top;">:</td><td><div>en-US,en;q=0.8</div></td></tr><tr><td style="font-weight:bold;vertical-align:top;">HTTP_CONNECTION</td><td style="vertical-align:top;">:</td><td><div>keep-alive</div></td></tr><tr><td style="font-weight:bold;vertical-align:top;">HTTP_COOKIE</td><td style="vertical-align:top;">:</td><td><div>session_id_welcome=127.0.0.1-95c3d7fe-12c8-4ae6-bb1c-8c154099d150; session_id_workshop_manager=127.0.0.1-41189d15-1269-426c-b6f9-635e2b98f512; session_id_new_tracks=127.0.0.1-42bf15f9-7068-4c67-8bbe-37bd8c7c7d32; session_id_genr8r_v3=127.0.0.1-82415e2c-bada-4b0a-8b36-b8ca78e12901; session_id_worksheet_app=127.0.0.1-20a70db0-5e7b-4650-b88e-144e89f782eb; session_id_admin=127.0.0.1-e49dbaf6-2f05-4c38-9a0b-4a244a891744</div></td></tr><tr><td style="font-weight:bold;vertical-align:top;">HTTP_HOST</td><td style="vertical-align:top;">:</td><td><div>127.0.0.1:8000</div></td></tr><tr><td style="font-weight:bold;vertical-align:top;">HTTP_REFERER</td><td style="vertical-align:top;">:</td><td><div>http://127.0.0.1:8000/admin/default/design/Worksheet_App</div></td></tr><tr><td style="font-weight:bold;vertical-align:top;">HTTP_USER_AGENT</td><td style="vertical-align:top;">:</td><td><div>Mozilla/5.0 (Macintosh; Intel Mac OS X 10_10_2) AppleWebKit/537.36 (KHTML, like Gecko) Chrome/42.0.2311.152 Safari/537.36</div></td></tr><tr><td style="font-weight:bold;vertical-align:top;">PATH_INFO</td><td style="vertical-align:top;">:</td><td><div>/Worksheet_App/default/index</div></td></tr><tr><td style="font-weight:bold;vertical-align:top;">QUERY_STRING</td><td style="vertical-align:top;">:</td><td><div></div></td></tr><tr><td style="font-weight:bold;vertical-align:top;">REMOTE_ADDR</td><td style="vertical-align:top;">:</td><td><div>127.0.0.1</div></td></tr><tr><td style="font-weight:bold;vertical-align:top;">REMOTE_PORT</td><td style="vertical-align:top;">:</td><td><div>57183</div></td></tr><tr><td style="font-weight:bold;vertical-align:top;">REQUEST_METHOD</td><td style="vertical-align:top;">:</td><td><div>GET</div></td></tr><tr><td style="font-weight:bold;vertical-align:top;">SCRIPT_NAME</td><td style="vertical-align:top;">:</td><td><div></div></td></tr><tr><td style="font-weight:bold;vertical-align:top;">SERVER_NAME</td><td style="vertical-align:top;">:</td><td><div>Sophies-MacBook-Pro.local</div></td></tr><tr><td style="font-weight:bold;vertical-align:top;">SERVER_PORT</td><td style="vertical-align:top;">:</td><td><div>8000</div></td></tr><tr><td style="font-weight:bold;vertical-align:top;">SERVER_PROTOCOL</td><td style="vertical-align:top;">:</td><td><div>HTTP/1.1</div></td></tr><tr><td style="font-weight:bold;vertical-align:top;">SERVER_SOFTWARE</td><td style="vertical-align:top;">:</td><td><div>Rocket 1.2.6</div></td></tr><tr><td style="font-weight:bold;vertical-align:top;">app_folders</td><td style="vertical-align:top;">:</td><td><div>set([&#x27;/Applications/web2py.app/Contents/Resources/applications/admin/&#x27;, &#x27;/Applications/web2py.app/Contents/Resources/applications/New_Tracks/&#x27;, &#x27;/Applications/web2py.app/Contents/Resources/applications/welcome/&#x27;, &#x27;/Applications/web2py.app/Contents/Resources/applications/Genr8r_V3/&#x27;, &#x27;/Applications/web2py.app/Contents/Resources/applications/Worksheet_App/&#x27;, &#x27;/Applications/web2py.app/Contents/Resources/applications/workshop_manager/&#x27;])</div></td></tr><tr><td style="font-weight:bold;vertical-align:top;">applications_parent</td><td style="vertical-align:top;">:</td><td><div>/Applications/web2py.app/Contents/Resources</div></td></tr><tr><td style="font-weight:bold;vertical-align:top;">cmd_args</td><td style="vertical-align:top;">:</td><td><div><table></table></div></td></tr><tr><td style="font-weight:bold;vertical-align:top;">cmd_options</td><td style="vertical-align:top;">:</td><td><div>&lt;Values at 0x105275e18: {&#x27;verbose&#x27;: False, &#x27;ip&#x27;: &#x27;127.0.0.1&#x27;, &#x27;debuglevel&#x27;: 30, &#x27;with_scheduler&#x27;: False, &#x27;ips&#x27;: [&#x27;10.0.0.17&#x27;, &#x27;fe80::3e15:c2ff:fec2:7f18%en0&#x27;, &#x27;2601:4a:101:5bcd:3e15:c2ff:fec2:7f18&#x27;], &#x27;shutdown_timeout&#x27;: 5, &#x27;taskbar&#x27;: False, &#x27;with_coverage&#x27;: False, &#x27;scheduler_groups&#x27;: None, &#x27;port&#x27;: 8000, &#x27;maxthreads&#x27;: None, &#x27;softcron&#x27;: False, &#x27;server_name&#x27;: &#x27;Sophies-MacBook-Pro.local&#x27;, &#x27;bpython&#x27;: False, &#x27;nogui&#x27;: False, &#x27;pid_filename&#x27;: &#x27;httpserver.pid&#x27;, &#x27;extcron&#x27;: False, &#x27;runcron&#x27;: False, &#x27;run_system_tests&#x27;: False, &#x27;test&#x27;: None, &#x27;folder&#x27;: &#x27;/Applications/web2py.app/Contents/Resources&#x27;, &#x27;config&#x27;: &#x27;&#x27;, &#x27;minthreads&#x27;: None, &#x27;shell&#x27;: None, &#x27;run&#x27;: &#x27;&#x27;, &#x27;log_filename&#x27;: &#x27;httpserver.log&#x27;, &#x27;profiler_dir&#x27;: None, &#x27;args&#x27;: [&#x27;&#x27;], &#x27;socket_timeout&#x27;: 5, &#x27;ssl_ca_certificate&#x27;: None, &#x27;scheduler&#x27;: None, &#x27;interfaces&#x27;: None, &#x27;ssl_private_key&#x27;: &#x27;&#x27;, &#x27;gae&#x27;: None, &#x27;password&#x27;: &#x27;&lt;ask&gt;&#x27;, &#x27;request_queue_size&#x27;: 5, &#x27;ssl_certificate&#x27;: &#x27;&#x27;, &#x27;cronjob&#x27;: False, &#x27;numthreads&#x27;: None, &#x27;quiet&#x27;: False, &#x27;import_models&#x27;: False, &#x27;timeout&#x27;: 10, &#x27;plain&#x27;: False, &#x27;nobanner&#x27;: False}&gt;</div></td></tr><tr><td style="font-weight:bold;vertical-align:top;">db_sessions</td><td style="vertical-align:top;">:</td><td><div>set([])</div></td></tr><tr><td style="font-weight:bold;vertical-align:top;">debugging</td><td style="vertical-align:top;">:</td><td><div>True</div></td></tr><tr><td style="font-weight:bold;vertical-align:top;">gluon_parent</td><td style="vertical-align:top;">:</td><td><div>/Applications/web2py.app/Contents/Resources</div></td></tr><tr><td style="font-weight:bold;vertical-align:top;">http_accept</td><td style="vertical-align:top;">:</td><td><div>text/html,application/xhtml+xml,application/xml;q=0.9,image/webp,*/*;q=0.8</div></td></tr><tr><td style="font-weight:bold;vertical-align:top;">http_accept_encoding</td><td style="vertical-align:top;">:</td><td><div>gzip, deflate, sdch</div></td></tr><tr><td style="font-weight:bold;vertical-align:top;">http_accept_language</td><td style="vertical-align:top;">:</td><td><div>en-US,en;q=0.8</div></td></tr><tr><td style="font-weight:bold;vertical-align:top;">http_connection</td><td style="vertical-align:top;">:</td><td><div>keep-alive</div></td></tr><tr><td style="font-weight:bold;vertical-align:top;">http_cookie</td><td style="vertical-align:top;">:</td><td><div>session_id_welcome=127.0.0.1-95c3d7fe-12c8-4ae6-bb1c-8c154099d150; session_id_workshop_manager=127.0.0.1-41189d15-1269-426c-b6f9-635e2b98f512; session_id_new_tracks=127.0.0.1-42bf15f9-7068-4c67-8bbe-37bd8c7c7d32; session_id_genr8r_v3=127.0.0.1-82415e2c-bada-4b0a-8b36-b8ca78e12901; session_id_worksheet_app=127.0.0.1-20a70db0-5e7b-4650-b88e-144e89f782eb; session_id_admin=127.0.0.1-e49dbaf6-2f05-4c38-9a0b-4a244a891744</div></td></tr><tr><td style="font-weight:bold;vertical-align:top;">http_host</td><td style="vertical-align:top;">:</td><td><div>127.0.0.1:8000</div></td></tr><tr><td style="font-weight:bold;vertical-align:top;">http_referer</td><td style="vertical-align:top;">:</td><td><div>http://127.0.0.1:8000/admin/default/design/Worksheet_App</div></td></tr><tr><td style="font-weight:bold;vertical-align:top;">http_user_agent</td><td style="vertical-align:top;">:</td><td><div>Mozilla/5.0 (Macintosh; Intel Mac OS X 10_10_2) AppleWebKit/537.36 (KHTML, like Gecko) Chrome/42.0.2311.152 Safari/537.36</div></td></tr><tr><td style="font-weight:bold;vertical-align:top;">is_jython</td><td style="vertical-align:top;">:</td><td><div>False</div></td></tr><tr><td style="font-weight:bold;vertical-align:top;">is_pypy</td><td style="vertical-align:top;">:</td><td><div>False</div></td></tr><tr><td style="font-weight:bold;vertical-align:top;">is_source</td><td style="vertical-align:top;">:</td><td><div>True</div></td></tr><tr><td style="font-weight:bold;vertical-align:top;">local_hosts</td><td style="vertical-align:top;">:</td><td><div><table><tr><td><div>10.0.0.17</div></td></tr><tr><td><div>fe80::3e15:c2ff:fec2:7f18%en0</div></td></tr><tr><td><div>::ffff:127.0.0.1</div></td></tr><tr><td><div>::1</div></td></tr><tr><td><div>127.0.0.1</div></td></tr><tr><td><div>Sophies-MacBook-Pro.local</div></td></tr><tr><td><div>2601:4a:101:5bcd:3e15:c2ff:fec2:7f18</div></td></tr></table></div></td></tr><tr><td style="font-weight:bold;vertical-align:top;">path_info</td><td style="vertical-align:top;">:</td><td><div>/Worksheet_App/default/index</div></td></tr><tr><td style="font-weight:bold;vertical-align:top;">query_string</td><td style="vertical-align:top;">:</td><td><div></div></td></tr><tr><td style="font-weight:bold;vertical-align:top;">remote_addr</td><td style="vertical-align:top;">:</td><td><div>127.0.0.1</div></td></tr><tr><td style="font-weight:bold;vertical-align:top;">remote_port</td><td style="vertical-align:top;">:</td><td><div>57183</div></td></tr><tr><td style="font-weight:bold;vertical-align:top;">request_method</td><td style="vertical-align:top;">:</td><td><div>GET</div></td></tr><tr><td style="font-weight:bold;vertical-align:top;">request_uri</td><td style="vertical-align:top;">:</td><td><div>/Worksheet_App/default/index</div></td></tr><tr><td style="font-weight:bold;vertical-align:top;">script_name</td><td style="vertical-align:top;">:</td><td><div></div></td></tr><tr><td style="font-weight:bold;vertical-align:top;">server_name</td><td style="vertical-align:top;">:</td><td><div>Sophies-MacBook-Pro.local</div></td></tr><tr><td style="font-weight:bold;vertical-align:top;">server_port</td><td style="vertical-align:top;">:</td><td><div>8000</div></td></tr><tr><td style="font-weight:bold;vertical-align:top;">server_protocol</td><td style="vertical-align:top;">:</td><td><div>HTTP/1.1</div></td></tr><tr><td style="font-weight:bold;vertical-align:top;">server_software</td><td style="vertical-align:top;">:</td><td><div>Rocket 1.2.6</div></td></tr><tr><td style="font-weight:bold;vertical-align:top;">web2py_path</td><td style="vertical-align:top;">:</td><td><div>/Applications/web2py.app/Contents/Resources</div></td></tr><tr><td style="font-weight:bold;vertical-align:top;">web2py_version</td><td style="vertical-align:top;">:</td><td><div>2.9.6-stable+timestamp.2014.09.02.01.57.55</div></td></tr><tr><td style="font-weight:bold;vertical-align:top;">wsgi.errors</td><td style="vertical-align:top;">:</td><td><div>&lt;open file &#x27;&lt;stderr&gt;&#x27;, mode &#x27;w&#x27; at 0x10076b270&gt;</div></td></tr><tr><td style="font-weight:bold;vertical-align:top;">wsgi.file_wrapper</td><td style="vertical-align:top;">:</td><td><div>&lt;class wsgiref.util.FileWrapper at 0x105221e20&gt;</div></td></tr><tr><td style="font-weight:bold;vertical-align:top;">wsgi.input</td><td style="vertical-align:top;">:</td><td><div>&lt;socket._fileobject object at 0x10e1edcd0&gt;</div></td></tr><tr><td style="font-weight:bold;vertical-align:top;">wsgi.multiprocess</td><td style="vertical-align:top;">:</td><td><div>False</div></td></tr><tr><td style="font-weight:bold;vertical-align:top;">wsgi.multithread</td><td style="vertical-align:top;">:</td><td><div>True</div></td></tr><tr><td style="font-weight:bold;vertical-align:top;">wsgi.run_once</td><td style="vertical-align:top;">:</td><td><div>False</div></td></tr><tr><td style="font-weight:bold;vertical-align:top;">wsgi.url_scheme</td><td style="vertical-align:top;">:</td><td><div>http</div></td></tr><tr><td style="font-weight:bold;vertical-align:top;">wsgi.version</td><td style="vertical-align:top;">:</td><td><div><table><tr><td><div>1</div></td></tr><tr><td><div>0</div></td></tr></table></div></td></tr><tr><td style="font-weight:bold;vertical-align:top;">wsgi_errors</td><td style="vertical-align:top;">:</td><td><div>&lt;open file &#x27;&lt;stderr&gt;&#x27;, mode &#x27;w&#x27; at 0x10076b270&gt;</div></td></tr><tr><td style="font-weight:bold;vertical-align:top;">wsgi_file_wrapper</td><td style="vertical-align:top;">:</td><td><div>&lt;class wsgiref.util.FileWrapper at 0x105221e20&gt;</div></td></tr><tr><td style="font-weight:bold;vertical-align:top;">wsgi_input</td><td style="vertical-align:top;">:</td><td><div>&lt;socket._fileobject object at 0x10e1edcd0&gt;</div></td></tr><tr><td style="font-weight:bold;vertical-align:top;">wsgi_multiprocess</td><td style="vertical-align:top;">:</td><td><div>False</div></td></tr><tr><td style="font-weight:bold;vertical-align:top;">wsgi_multithread</td><td style="vertical-align:top;">:</td><td><div>True</div></td></tr><tr><td style="font-weight:bold;vertical-align:top;">wsgi_run_once</td><td style="vertical-align:top;">:</td><td><div>False</div></td></tr><tr><td style="font-weight:bold;vertical-align:top;">wsgi_url_scheme</td><td style="vertical-align:top;">:</td><td><div>http</div></td></tr><tr><td style="font-weight:bold;vertical-align:top;">wsgi_version</td><td style="vertical-align:top;">:</td><td><div><table><tr><td><div>1</div></td></tr><tr><td><div>0</div></td></tr></table></div></td></tr></table></div></td></tr><tr><td style="font-weight:bold;vertical-align:top;">extension</td><td style="vertical-align:top;">:</td><td><div>html</div></td></tr><tr><td style="font-weight:bold;vertical-align:top;">folder</td><td style="vertical-align:top;">:</td><td><div>/Applications/web2py.app/Contents/Resources/applications/Worksheet_App/</div></td></tr><tr><td style="font-weight:bold;vertical-align:top;">function</td><td style="vertical-align:top;">:</td><td><div>index</div></td></tr><tr><td style="font-weight:bold;vertical-align:top;">global_settings</td><td style="vertical-align:top;">:</td><td><div><table><tr><td style="font-weight:bold;vertical-align:top;">app_folders</td><td style="vertical-align:top;">:</td><td><div>set([&#x27;/Applications/web2py.app/Contents/Resources/applications/admin/&#x27;, &#x27;/Applications/web2py.app/Contents/Resources/applications/New_Tracks/&#x27;, &#x27;/Applications/web2py.app/Contents/Resources/applications/welcome/&#x27;, &#x27;/Applications/web2py.app/Contents/Resources/applications/Genr8r_V3/&#x27;, &#x27;/Applications/web2py.app/Contents/Resources/applications/Worksheet_App/&#x27;, &#x27;/Applications/web2py.app/Contents/Resources/applications/workshop_manager/&#x27;])</div></td></tr><tr><td style="font-weight:bold;vertical-align:top;">applications_parent</td><td style="vertical-align:top;">:</td><td><div>/Applications/web2py.app/Contents/Resources</div></td></tr><tr><td style="font-weight:bold;vertical-align:top;">cmd_args</td><td style="vertical-align:top;">:</td><td><div><table></table></div></td></tr><tr><td style="font-weight:bold;vertical-align:top;">cmd_options</td><td style="vertical-align:top;">:</td><td><div>&lt;Values at 0x105275e18: {&#x27;verbose&#x27;: False, &#x27;ip&#x27;: &#x27;127.0.0.1&#x27;, &#x27;debuglevel&#x27;: 30, &#x27;with_scheduler&#x27;: False, &#x27;ips&#x27;: [&#x27;10.0.0.17&#x27;, &#x27;fe80::3e15:c2ff:fec2:7f18%en0&#x27;, &#x27;2601:4a:101:5bcd:3e15:c2ff:fec2:7f18&#x27;], &#x27;shutdown_timeout&#x27;: 5, &#x27;taskbar&#x27;: False, &#x27;with_coverage&#x27;: False, &#x27;scheduler_groups&#x27;: None, &#x27;port&#x27;: 8000, &#x27;maxthreads&#x27;: None, &#x27;softcron&#x27;: False, &#x27;server_name&#x27;: &#x27;Sophies-MacBook-Pro.local&#x27;, &#x27;bpython&#x27;: False, &#x27;nogui&#x27;: False, &#x27;pid_filename&#x27;: &#x27;httpserver.pid&#x27;, &#x27;extcron&#x27;: False, &#x27;runcron&#x27;: False, &#x27;run_system_tests&#x27;: False, &#x27;test&#x27;: None, &#x27;folder&#x27;: &#x27;/Applications/web2py.app/Contents/Resources&#x27;, &#x27;config&#x27;: &#x27;&#x27;, &#x27;minthreads&#x27;: None, &#x27;shell&#x27;: None, &#x27;run&#x27;: &#x27;&#x27;, &#x27;log_filename&#x27;: &#x27;httpserver.log&#x27;, &#x27;profiler_dir&#x27;: None, &#x27;args&#x27;: [&#x27;&#x27;], &#x27;socket_timeout&#x27;: 5, &#x27;ssl_ca_certificate&#x27;: None, &#x27;scheduler&#x27;: None, &#x27;interfaces&#x27;: None, &#x27;ssl_private_key&#x27;: &#x27;&#x27;, &#x27;gae&#x27;: None, &#x27;password&#x27;: &#x27;&lt;ask&gt;&#x27;, &#x27;request_queue_size&#x27;: 5, &#x27;ssl_certificate&#x27;: &#x27;&#x27;, &#x27;cronjob&#x27;: False, &#x27;numthreads&#x27;: None, &#x27;quiet&#x27;: False, &#x27;import_models&#x27;: False, &#x27;timeout&#x27;: 10, &#x27;plain&#x27;: False, &#x27;nobanner&#x27;: False}&gt;</div></td></tr><tr><td style="font-weight:bold;vertical-align:top;">db_sessions</td><td style="vertical-align:top;">:</td><td><div>set([])</div></td></tr><tr><td style="font-weight:bold;vertical-align:top;">debugging</td><td style="vertical-align:top;">:</td><td><div>True</div></td></tr><tr><td style="font-weight:bold;vertical-align:top;">gluon_parent</td><td style="vertical-align:top;">:</td><td><div>/Applications/web2py.app/Contents/Resources</div></td></tr><tr><td style="font-weight:bold;vertical-align:top;">is_jython</td><td style="vertical-align:top;">:</td><td><div>False</div></td></tr><tr><td style="font-weight:bold;vertical-align:top;">is_pypy</td><td style="vertical-align:top;">:</td><td><div>False</div></td></tr><tr><td style="font-weight:bold;vertical-align:top;">is_source</td><td style="vertical-align:top;">:</td><td><div>True</div></td></tr><tr><td style="font-weight:bold;vertical-align:top;">local_hosts</td><td style="vertical-align:top;">:</td><td><div><table><tr><td><div>10.0.0.17</div></td></tr><tr><td><div>fe80::3e15:c2ff:fec2:7f18%en0</div></td></tr><tr><td><div>::ffff:127.0.0.1</div></td></tr><tr><td><div>::1</div></td></tr><tr><td><div>127.0.0.1</div></td></tr><tr><td><div>Sophies-MacBook-Pro.local</div></td></tr><tr><td><div>2601:4a:101:5bcd:3e15:c2ff:fec2:7f18</div></td></tr></table></div></td></tr><tr><td style="font-weight:bold;vertical-align:top;">web2py_version</td><td style="vertical-align:top;">:</td><td><div>2.9.6-stable+timestamp.2014.09.02.01.57.55</div></td></tr></table></div></td></tr><tr><td style="font-weight:bold;vertical-align:top;">is_https</td><td style="vertical-align:top;">:</td><td><div>False</div></td></tr><tr><td style="font-weight:bold;vertical-align:top;">is_local</td><td style="vertical-align:top;">:</td><td><div>True</div></td></tr><tr><td style="font-weight:bold;vertical-align:top;">is_restful</td><td style="vertical-align:top;">:</td><td><div>False</div></td></tr><tr><td style="font-weight:bold;vertical-align:top;">is_sheduler</td><td style="vertical-align:top;">:</td><td><div>None</div></td></tr><tr><td style="font-weight:bold;vertical-align:top;">is_shell</td><td style="vertical-align:top;">:</td><td><div>None</div></td></tr><tr><td style="font-weight:bold;vertical-align:top;">now</td><td style="vertical-align:top;">:</td><td><div>datetime.datetime(2015, 5, 19, 18, 1, 33, 998218)</div></td></tr><tr><td style="font-weight:bold;vertical-align:top;">raw_args</td><td style="vertical-align:top;">:</td><td><div></div></td></tr><tr><td style="font-weight:bold;vertical-align:top;">raw_extension</td><td style="vertical-align:top;">:</td><td><div>None</div></td></tr><tr><td style="font-weight:bold;vertical-align:top;">url</td><td style="vertical-align:top;">:</td><td><div>/Worksheet_App/default/index</div></td></tr><tr><td style="font-weight:bold;vertical-align:top;">utcnow</td><td style="vertical-align:top;">:</td><td><div>datetime.datetime(2015, 5, 19, 22, 1, 33, 998229)</div></td></tr><tr><td style="font-weight:bold;vertical-align:top;">uuid</td><td style="vertical-align:top;">:</td><td><div>Worksheet_App/127.0.0.1.2015-05-19.18-01-33.d1330e56-abed-49d1-9875-2e6e33823d1b</div></td></tr><tr><td style="font-weight:bold;vertical-align:top;">wsgi</td><td style="vertical-align:top;">:</td><td><div>&lt;gluon.main.LazyWSGI object at 0x10e587e90&gt;</div></td></tr></table></div>'
tRp58
sS'frames'
p59
(lp60
(dp61
S'file'
p62
S'/Applications/web2py.app/Contents/Resources/gluon/restricted.py'
p63
sS'dump'
p64
(dp65
sS'lnum'
p66
I221
sS'lines'
p67
(dp68
I224
S'    except RestrictedError:'
p69
sI225
S'        # do not encapsulate (obfuscate) the original RestrictedError'
p70
sI216
S'    try:'
p71
sI217
S'        if isinstance(code, types.CodeType):'
p72
sI218
S'            ccode = code'
p73
sI219
S'        else:'
p74
sI220
S'            ccode = compile2(code, layer)'
p75
sI221
S'        exec ccode in environment'
p76
sI222
S'    except HTTP:'
p77
sI223
S'        raise'
p78
ssS'call'
p79
S'(code=\'left_sidebar_enabled=False,right_sidebar_enabled..."></script>\\\\n</body>\\\\n</html>\\\\n\\\\n\\\', escape=False)\', environment={\'A\': <class \'gluon.html.A\'>, \'ANY_OF\': <class \'gluon.validators.ANY_OF\'>, \'Auth\': <class \'gluon.tools.Auth\'>, \'B\': <class \'gluon.html.B\'>, \'BEAUTIFY\': <class \'gluon.html.BEAUTIFY\'>, \'BODY\': <class \'gluon.html.BODY\'>, \'BR\': <class \'gluon.html.BR\'>, \'BUTTON\': <class \'gluon.html.BUTTON\'>, \'CAT\': <class \'gluon.html.CAT\'>, \'CENTER\': <class \'gluon.html.CENTER\'>, ...}, layer=\'/Applications/web2py.app/Contents/Resources/applications/Worksheet_App/views/default/index.html\')'
p80
sS'func'
p81
S'restricted'
p82
sa(dp83
g62
S'/Applications/web2py.app/Contents/Resources/applications/Worksheet_App/views/default/index.html'
p84
sg64
(dp85
sg66
I1
sg67
(dp86
I1
S"left_sidebar_enabled=False,right_sidebar_enabled,('message' in globals())"
p87
sI2
S"response.write('\\n', escape=False)"
p88
sI3
S'response.write(\'<!--[if HTML5]><![endif]-->\\n<!DOCTYPE html>\\n<!-- paulirish.com/2008/conditional-stylesheets-vs-css-hacks-answer-neither/ -->\\n<!--[if lt IE 7]><html class="ie ie6 ie-lte9 ie-lte8 ie-lte7 no-js" lang="\', escape=False)'
p89
sI4
S"response.write(T.accepted_language or 'en')"
p90
sI5
S'response.write(\'"> <![endif]-->\\n<!--[if IE 7]><html class="ie ie7 ie-lte9 ie-lte8 ie-lte7 no-js" lang="\', escape=False)'
p91
sI6
S"response.write(T.accepted_language or 'en')"
p92
sI7
S'response.write(\'"> <![endif]-->\\n<!--[if IE 8]><html class="ie ie8 ie-lte9 ie-lte8 no-js" lang="\', escape=False)'
p93
sI8
S"response.write(T.accepted_language or 'en')"
p94
sI9
S'response.write(\'"> <![endif]-->\\n<!--[if IE 9]><html class="ie9 ie-lte9 no-js" lang="\', escape=False)'
p95
sI10
S"response.write(T.accepted_language or 'en')"
p96
sI11
S'response.write(\'"> <![endif]-->\\n<!--[if (gt IE 9)|!(IE)]><!--> <html class="no-js" lang="\', escape=False)'
p97
ssg79
S'()'
p98
sg81
S'<module>'
p99
sasS'pyver'
p100
S'Python 2.7.3: /Applications/web2py.app/Contents/MacOS/python (prefix: /Applications/web2py.app/Contents/Resources)'
p101
sS'session'
p102
g57
(S's\x16\n\x00\x00<div><table><tr><td style="font-weight:bold;vertical-align:top;">auth</td><td style="vertical-align:top;">:</td><td><div><table><tr><td style="font-weight:bold;vertical-align:top;">expiration</td><td style="vertical-align:top;">:</td><td><div>3600</div></td></tr><tr><td style="font-weight:bold;vertical-align:top;">hmac_key</td><td style="vertical-align:top;">:</td><td><div>3d96a866-0302-45d6-9785-c635e8409568</div></td></tr><tr><td style="font-weight:bold;vertical-align:top;">last_visit</td><td style="vertical-align:top;">:</td><td><div>datetime.datetime(2015, 5, 19, 17, 59, 58, 561617)</div></td></tr><tr><td style="font-weight:bold;vertical-align:top;">remember_me</td><td style="vertical-align:top;">:</td><td><div>False</div></td></tr><tr><td style="font-weight:bold;vertical-align:top;">user</td><td style="vertical-align:top;">:</td><td><div><table><tr><td style="font-weight:bold;vertical-align:top;">email</td><td style="vertical-align:top;">:</td><td><div>sfisher@agnesirwin.org</div></td></tr><tr><td style="font-weight:bold;vertical-align:top;">first_name</td><td style="vertical-align:top;">:</td><td><div>Sophie</div></td></tr><tr><td style="font-weight:bold;vertical-align:top;">id</td><td style="vertical-align:top;">:</td><td><div>5L</div></td></tr><tr><td style="font-weight:bold;vertical-align:top;">last_name</td><td style="vertical-align:top;">:</td><td><div>Fisher</div></td></tr><tr><td style="font-weight:bold;vertical-align:top;">registration_id</td><td style="vertical-align:top;">:</td><td><div></div></td></tr><tr><td style="font-weight:bold;vertical-align:top;">registration_key</td><td style="vertical-align:top;">:</td><td><div></div></td></tr><tr><td style="font-weight:bold;vertical-align:top;">reset_password_key</td><td style="vertical-align:top;">:</td><td><div></div></td></tr></table></div></td></tr><tr><td style="font-weight:bold;vertical-align:top;">user_groups</td><td style="vertical-align:top;">:</td><td><div><table><tr><td style="font-weight:bold;vertical-align:top;">5</td><td style="vertical-align:top;">:</td><td><div>student</div></td></tr></table></div></td></tr></table></div></td></tr><tr><td style="font-weight:bold;vertical-align:top;">flash</td><td style="vertical-align:top;">:</td><td><div>None</div></td></tr><tr><td style="font-weight:bold;vertical-align:top;">last_orderby</td><td style="vertical-align:top;">:</td><td><div>None</div></td></tr><tr><td style="font-weight:bold;vertical-align:top;">last_query</td><td style="vertical-align:top;">:</td><td><div>db.auth_membership.id&gt;0</div></td></tr></table></div>'
tRp103
sS'etype'
p104
S"<type 'exceptions.NameError'>"
p105
sS'date'
p106
S'Tue May 19 18:01:34 2015'
p107
sS'response'
p108
g57
(S's\x1d3\x00\x00<div><table><tr><td style="font-weight:bold;vertical-align:top;">body</td><td style="vertical-align:top;">:</td><td><div>&lt;cStringIO.StringO object at 0x10da632d0&gt;</div></td></tr><tr><td style="font-weight:bold;vertical-align:top;">cookies</td><td style="vertical-align:top;">:</td><td><div><table><tr><td style="font-weight:bold;vertical-align:top;">session_id_worksheet_app</td><td style="vertical-align:top;">:</td><td><div>127.0.0.1-20a70db0-5e7b-4650-b88e-144e89f782eb<table><tr><td style="font-weight:bold;vertical-align:top;">comment</td><td style="vertical-align:top;">:</td><td><div></div></td></tr><tr><td style="font-weight:bold;vertical-align:top;">domain</td><td style="vertical-align:top;">:</td><td><div></div></td></tr><tr><td style="font-weight:bold;vertical-align:top;">expires</td><td style="vertical-align:top;">:</td><td><div></div></td></tr><tr><td style="font-weight:bold;vertical-align:top;">httponly</td><td style="vertical-align:top;">:</td><td><div></div></td></tr><tr><td style="font-weight:bold;vertical-align:top;">max-age</td><td style="vertical-align:top;">:</td><td><div></div></td></tr><tr><td style="font-weight:bold;vertical-align:top;">path</td><td style="vertical-align:top;">:</td><td><div>/</div></td></tr><tr><td style="font-weight:bold;vertical-align:top;">secure</td><td style="vertical-align:top;">:</td><td><div></div></td></tr><tr><td style="font-weight:bold;vertical-align:top;">version</td><td style="vertical-align:top;">:</td><td><div></div></td></tr></table></div></td></tr></table></div></td></tr><tr><td style="font-weight:bold;vertical-align:top;">delimiters</td><td style="vertical-align:top;">:</td><td><div><table><tr><td><div>{{</div></td></tr><tr><td><div>}}</div></td></tr></table></div></td></tr><tr><td style="font-weight:bold;vertical-align:top;">files</td><td style="vertical-align:top;">:</td><td><div><table></table></div></td></tr><tr><td style="font-weight:bold;vertical-align:top;">flash</td><td style="vertical-align:top;">:</td><td><div></div></td></tr><tr><td style="font-weight:bold;vertical-align:top;">form_label_separator</td><td style="vertical-align:top;">:</td><td><div>: </div></td></tr><tr><td style="font-weight:bold;vertical-align:top;">formstyle</td><td style="vertical-align:top;">:</td><td><div>table3cols</div></td></tr><tr><td style="font-weight:bold;vertical-align:top;">generic_patterns</td><td style="vertical-align:top;">:</td><td><div><table><tr><td><div>*</div></td></tr></table></div></td></tr><tr><td style="font-weight:bold;vertical-align:top;">google_analytics_id</td><td style="vertical-align:top;">:</td><td><div>None</div></td></tr><tr><td style="font-weight:bold;vertical-align:top;">headers</td><td style="vertical-align:top;">:</td><td><div><table><tr><td style="font-weight:bold;vertical-align:top;">X-Powered-By</td><td style="vertical-align:top;">:</td><td><div>web2py</div></td></tr></table></div></td></tr><tr><td style="font-weight:bold;vertical-align:top;">logo</td><td style="vertical-align:top;">:</td><td><div><a class="brand" href="http://www.web2py.com/"><b>web<span>2</span>py</b>&trade;&nbsp;</a></div></td></tr><tr><td style="font-weight:bold;vertical-align:top;">menu</td><td style="vertical-align:top;">:</td><td><div><table><tr><td><div><table><tr><td><div>Home</div></td></tr><tr><td><div>False</div></td></tr><tr><td><div>/Worksheet_App/default/index</div></td></tr><tr><td><div><table></table></div></td></tr></table></div></td></tr><tr><td><div><table><tr><td><div><span class="highlighted">web2py</span></div></td></tr><tr><td><div>False</div></td></tr><tr><td><div>http://web2py.com</div></td></tr><tr><td><div><table><tr><td><div><table><tr><td><div>My Sites</div></td></tr><tr><td><div>False</div></td></tr><tr><td><div>/admin/default/site</div></td></tr></table></div></td></tr><tr><td><div><table><tr><td><div>This App</div></td></tr><tr><td><div>False</div></td></tr><tr><td><div>/admin/default/design/Worksheet_App</div></td></tr><tr><td><div>[(&lt;lazyT &#x27;Controller&#x27;&gt;, False, &#x27;/admin/default/edit/Worksheet_App/controllers/default.py&#x27;), (&lt;lazyT &#x27;View&#x27;&gt;, False, &#x27;/admin/default/edit/Worksheet_App/views/default/index.html&#x27;), (&lt;lazyT &#x27;Layout&#x27;&gt;, False, &#x27;/admin/default/edit/Worksheet_App/views/layout.html&#x27;), (&lt;lazyT &#x27;Stylesheet&#x27;&gt;, False, &#x27;/admin/default/edit/Worksheet_App/static/css/web2py.css&#x27;), (&lt;lazyT &#x27;DB Model&#x27;&gt;, False, &#x27;/admin/default/edit/Worksheet_App/models/db.py&#x27;), (&lt;lazyT &#x27;Menu Model&#x27;&gt;, False, &#x27;/admin/default/edit/Worksheet_App/models/menu.py&#x27;), (&lt;lazyT &#x27;Database&#x27;&gt;, False, &#x27;/Worksheet_App/appadmin/index&#x27;), (&lt;lazyT &#x27;Errors&#x27;&gt;, False, &#x27;/admin/default/errors/Worksheet_App&#x27;), (&lt;lazyT &#x27;About&#x27;&gt;, False, &#x27;/admin/default/about/Worksheet_App&#x27;)]</div></td></tr></table></div></td></tr><tr><td><div><table><tr><td><div>web2py.com</div></td></tr><tr><td><div>False</div></td></tr><tr><td><div>http://www.web2py.com</div></td></tr><tr><td><div>[(&lt;lazyT &#x27;Download&#x27;&gt;, False, &#x27;http://www.web2py.com/examples/default/download&#x27;), (&lt;lazyT &#x27;Support&#x27;&gt;, False, &#x27;http://www.web2py.com/examples/default/support&#x27;), (&lt;lazyT &#x27;Demo&#x27;&gt;, False, &#x27;http://web2py.com/demo_admin&#x27;), (&lt;lazyT &#x27;Quick Examples&#x27;&gt;, False, &#x27;http://web2py.com/examples/default/examples&#x27;), (&lt;lazyT &#x27;FAQ&#x27;&gt;, False, &#x27;http://web2py.com/AlterEgo&#x27;), (&lt;lazyT &#x27;Videos&#x27;&gt;, False, &#x27;http://www.web2py.com/examples/default/videos/&#x27;), (&lt;lazyT &#x27;Free Applications&#x27;&gt;, False, &#x27;http://web2py.com/appliances&#x27;), (&lt;lazyT &#x27;Plugins&#x27;&gt;, False, &#x27;http://web2py.com/plugins&#x27;), (&lt;lazyT &#x27;Layouts&#x27;&gt;, False, &#x27;http://web2py.com/layouts&#x27;), (&lt;lazyT &#x27;Recipes&#x27;&gt;, False, &#x27;http://web2pyslices.com/&#x27;), (&lt;lazyT &#x27;Semantic&#x27;&gt;, False, &#x27;http://web2py.com/semantic&#x27;)]</div></td></tr></table></div></td></tr><tr><td><div><table><tr><td><div>Documentation</div></td></tr><tr><td><div>False</div></td></tr><tr><td><div>http://www.web2py.com/book</div></td></tr><tr><td><div>[(&lt;lazyT &#x27;Preface&#x27;&gt;, False, &#x27;http://www.web2py.com/book/default/chapter/00&#x27;), (&lt;lazyT &#x27;Introduction&#x27;&gt;, False, &#x27;http://www.web2py.com/book/default/chapter/01&#x27;), (&lt;lazyT &#x27;Python&#x27;&gt;, False, &#x27;http://www.web2py.com/book/default/chapter/02&#x27;), (&lt;lazyT &#x27;Overview&#x27;&gt;, False, &#x27;http://www.web2py.com/book/default/chapter/03&#x27;), (&lt;lazyT &#x27;The Core&#x27;&gt;, False, &#x27;http://www.web2py.com/book/default/chapter/04&#x27;), (&lt;lazyT &#x27;The Views&#x27;&gt;, False, &#x27;http://www.web2py.com/book/default/chapter/05&#x27;), (&lt;lazyT &#x27;Database&#x27;&gt;, False, &#x27;http://www.web2py.com/book/default/chapter/06&#x27;), (&lt;lazyT &#x27;Forms and Validators&#x27;&gt;, False, &#x27;http://www.web2py.com/book/default/chapter/07&#x27;), (&lt;lazyT &#x27;Email and SMS&#x27;&gt;, False, &#x27;http://www.web2py.com/book/default/chapter/08&#x27;), (&lt;lazyT &#x27;Access Control&#x27;&gt;, False, &#x27;http://www.web2py.com/book/default/chapter/09&#x27;), (&lt;lazyT &#x27;Services&#x27;&gt;, False, &#x27;http://www.web2py.com/book/default/chapter/10&#x27;), (&lt;lazyT &#x27;Ajax Recipes&#x27;&gt;, False, &#x27;http://www.web2py.com/book/default/chapter/11&#x27;), (&lt;lazyT &#x27;Components and Plugins&#x27;&gt;, False, &#x27;http://www.web2py.com/book/default/chapter/12&#x27;), (&lt;lazyT &#x27;Deployment Recipes&#x27;&gt;, False, &#x27;http://www.web2py.com/book/default/chapter/13&#x27;), (&lt;lazyT &#x27;Other Recipes&#x27;&gt;, False, &#x27;http://www.web2py.com/book/default/chapter/14&#x27;), (&lt;lazyT &#x27;Buy this book&#x27;&gt;, False, &#x27;http://stores.lulu.com/web2py&#x27;)]</div></td></tr></table></div></td></tr><tr><td><div><table><tr><td><div>Community</div></td></tr><tr><td><div>False</div></td></tr><tr><td><div>None</div></td></tr><tr><td><div>[(&lt;lazyT &#x27;Groups&#x27;&gt;, False, &#x27;http://www.web2py.com/examples/default/usergroups&#x27;), (&lt;lazyT &#x27;Twitter&#x27;&gt;, False, &#x27;http://twitter.com/web2py&#x27;), (&lt;lazyT &#x27;Live Chat&#x27;&gt;, False, &#x27;http://webchat.freenode.net/?channels=web2py&#x27;)]</div></td></tr></table></div></td></tr><tr><td><div><table><tr><td><div>Plugins</div></td></tr><tr><td><div>False</div></td></tr><tr><td><div>None</div></td></tr><tr><td><div>[(&#x27;plugin_wiki&#x27;, False, &#x27;http://web2py.com/examples/default/download&#x27;), (&lt;lazyT &#x27;Other Plugins&#x27;&gt;, False, &#x27;http://web2py.com/plugins&#x27;), (&lt;lazyT &#x27;Layout Plugins&#x27;&gt;, False, &#x27;http://web2py.com/layouts&#x27;)]</div></td></tr></table></div></td></tr></table></div></td></tr></table></div></td></tr></table></div></td></tr><tr><td style="font-weight:bold;vertical-align:top;">meta</td><td style="vertical-align:top;">:</td><td><div><table><tr><td style="font-weight:bold;vertical-align:top;">author</td><td style="vertical-align:top;">:</td><td><div>Your Name &lt;you@example.com&gt;</div></td></tr><tr><td style="font-weight:bold;vertical-align:top;">generator</td><td style="vertical-align:top;">:</td><td><div>Web2py Web Framework</div></td></tr><tr><td style="font-weight:bold;vertical-align:top;">keywords</td><td style="vertical-align:top;">:</td><td><div>web2py, python, framework</div></td></tr></table></div></td></tr><tr><td style="font-weight:bold;vertical-align:top;">models_to_run</td><td style="vertical-align:top;">:</td><td><div><table><tr><td><div>^\\w+\\.py$</div></td></tr><tr><td><div>^default/\\w+\\.py$</div></td></tr><tr><td><div>^default/index/\\w+\\.py$</div></td></tr></table></div></td></tr><tr><td style="font-weight:bold;vertical-align:top;">postprocessing</td><td style="vertical-align:top;">:</td><td><div><table></table></div></td></tr><tr><td style="font-weight:bold;vertical-align:top;">session_client</td><td style="vertical-align:top;">:</td><td><div>127.0.0.1</div></td></tr><tr><td style="font-weight:bold;vertical-align:top;">session_cookie_compression_level</td><td style="vertical-align:top;">:</td><td><div>None</div></td></tr><tr><td style="font-weight:bold;vertical-align:top;">session_cookie_expires</td><td style="vertical-align:top;">:</td><td><div>None</div></td></tr><tr><td style="font-weight:bold;vertical-align:top;">session_cookie_key</td><td style="vertical-align:top;">:</td><td><div>None</div></td></tr><tr><td style="font-weight:bold;vertical-align:top;">session_data_name</td><td style="vertical-align:top;">:</td><td><div>session_data_worksheet_app</div></td></tr><tr><td style="font-weight:bold;vertical-align:top;">session_file</td><td style="vertical-align:top;">:</td><td><div>&lt;open file &#x27;/Applications/web2py.app/Contents/Resources/applications/Worksheet_App/sessions/127.0.0.1-20a70db0-5e7b-4650-b88e-144e89f782eb&#x27;, mode &#x27;rb+&#x27; at 0x10da5ad20&gt;</div></td></tr><tr><td style="font-weight:bold;vertical-align:top;">session_filename</td><td style="vertical-align:top;">:</td><td><div>/Applications/web2py.app/Contents/Resources/applications/Worksheet_App/sessions/127.0.0.1-20a70db0-5e7b-4650-b88e-144e89f782eb</div></td></tr><tr><td style="font-weight:bold;vertical-align:top;">session_hash</td><td style="vertical-align:top;">:</td><td><div>1be0927bb444684d0b70cda0ba438507</div></td></tr><tr><td style="font-weight:bold;vertical-align:top;">session_id</td><td style="vertical-align:top;">:</td><td><div>127.0.0.1-20a70db0-5e7b-4650-b88e-144e89f782eb</div></td></tr><tr><td style="font-weight:bold;vertical-align:top;">session_id_name</td><td style="vertical-align:top;">:</td><td><div>session_id_worksheet_app</div></td></tr><tr><td style="font-weight:bold;vertical-align:top;">session_locked</td><td style="vertical-align:top;">:</td><td><div>True</div></td></tr><tr><td style="font-weight:bold;vertical-align:top;">session_masterapp</td><td style="vertical-align:top;">:</td><td><div>Worksheet_App</div></td></tr><tr><td style="font-weight:bold;vertical-align:top;">session_new</td><td style="vertical-align:top;">:</td><td><div>False</div></td></tr><tr><td style="font-weight:bold;vertical-align:top;">session_storage_type</td><td style="vertical-align:top;">:</td><td><div>file</div></td></tr><tr><td style="font-weight:bold;vertical-align:top;">status</td><td style="vertical-align:top;">:</td><td><div>200</div></td></tr><tr><td style="font-weight:bold;vertical-align:top;">subtitle</td><td style="vertical-align:top;">:</td><td><div></div></td></tr><tr><td style="font-weight:bold;vertical-align:top;">title</td><td style="vertical-align:top;">:</td><td><div>Worksheet App</div></td></tr><tr><td style="font-weight:bold;vertical-align:top;">view</td><td style="vertical-align:top;">:</td><td><div>default/index.html</div></td></tr></table></div>'
tRp109
sS'locals'
p110
(dp111
S'OBJECT'
p112
S"<class 'gluon.html.OBJECT'>"
p113
sS'SQLDB'
p114
S"<class 'gluon.dal.DAL'>"
p115
sg102
S"<Storage {'_formkey[department/create]': ['10174...60e16', '2a944a1c-73c9-4615-96b6-951007ddfbae']}>"
p116
sS'LINK'
p117
S"<class 'gluon.html.LINK'>"
p118
sS'BR'
p119
S"<class 'gluon.html.BR'>"
p120
sS'local_import'
p121
S'<function <lambda>>'
p122
sS'OPTGROUP'
p123
S"<class 'gluon.html.OPTGROUP'>"
p124
sS'__package__'
p125
S'None'
p126
sS'PRE'
p127
S"<class 'gluon.html.PRE'>"
p128
sS'IS_INT_IN_RANGE'
p129
S"<class 'gluon.validators.IS_INT_IN_RANGE'>"
p130
sS'IS_LOWER'
p131
S"<class 'gluon.validators.IS_LOWER'>"
p132
sS'IS_STRONG'
p133
S"<class 'gluon.validators.IS_STRONG'>"
p134
sS'cache'
p135
S'<gluon.cache.Cache object>'
p136
sS'IS_IN_DB'
p137
S"<class 'gluon.validators.IS_IN_DB'>"
p138
sS'TAG'
p139
S'<gluon.html.__TAG__ object>'
p140
sS'SQLField'
p141
S"<class 'gluon.dal.Field'>"
p142
sS'BODY'
p143
S"<class 'gluon.html.BODY'>"
p144
sS'IS_DATE_IN_RANGE'
p145
S"<class 'gluon.validators.IS_DATE_IN_RANGE'>"
p146
sS'TH'
p147
S"<class 'gluon.html.TH'>"
p148
sS'URL'
p149
S'<function URL>'
p150
sS'__file__'
p151
S"'/Applications/web2py.app/Contents/Resources/applications/Worksheet_App/views/default/index.html'"
p152
sS'db'
p153
S'<DAL uri="sqlite://storage.sqlite">'
p154
sS'auth'
p155
S'<gluon.tools.Auth object>'
p156
sS'P'
S"<class 'gluon.html.P'>"
p157
sS'TFOOT'
p158
S"<class 'gluon.html.TFOOT'>"
p159
sS'XHTML'
p160
S"<class 'gluon.html.XHTML'>"
p161
sS'ON'
p162
S'True'
p163
sS'OL'
p164
S"<class 'gluon.html.OL'>"
p165
sS'TEXTAREA'
p166
S"<class 'gluon.html.TEXTAREA'>"
p167
sS'MENU'
p168
S"<class 'gluon.html.MENU'>"
p169
sS'EM'
p170
S"<class 'gluon.html.EM'>"
p171
sS'CODE'
p172
S"<class 'gluon.html.CODE'>"
p173
sS'HTTP'
p174
S"<class 'gluon.http.HTTP'>"
p175
sS'HR'
p176
S"<class 'gluon.html.HR'>"
p177
sS'IS_DATETIME'
p178
S"<class 'gluon.validators.IS_DATETIME'>"
p179
sS'HEAD'
p180
S"<class 'gluon.html.HEAD'>"
p181
sS'LABEL'
p182
S"<class 'gluon.html.LABEL'>"
p183
sS'CLEANUP'
p184
S"<class 'gluon.validators.CLEANUP'>"
p185
sS'SELECT'
p186
S"<class 'gluon.html.SELECT'>"
p187
sS'CENTER'
p188
S"<class 'gluon.html.CENTER'>"
p189
sS'Crud'
p190
S"<class 'gluon.tools.Crud'>"
p191
sS'Auth'
p192
S"<class 'gluon.tools.Auth'>"
p193
sS'DEVELOPMENT_MENU'
p194
g163
sS'__builtins__'
p195
S"{'ArithmeticError': <type 'exceptions.ArithmeticError'>, 'AssertionError': <type 'exceptions.AssertionError'>, 'AttributeError': <type 'exceptions.AttributeError'>, 'BaseException': <type 'exceptions.BaseException'>, 'BufferError': <type 'exceptions.BufferError'>, 'BytesWarning': <type 'exceptions.BytesWarning'>, 'DeprecationWarning': <type 'exceptions.DeprecationWarning'>, 'EOFError': <type 'exceptions.EOFError'>, 'Ellipsis': Ellipsis, 'EnvironmentError': <type 'exceptions.EnvironmentError'>, ...}"
p196
sS'HTML'
p197
S"<class 'gluon.html.HTML'>"
p198
sS'SQLFORM'
p199
S"<class 'gluon.sqlhtml.SQLFORM'>"
p200
sS'LOAD'
p201
S'<function LOAD>'
p202
sS'redirect'
p203
S'<function redirect>'
p204
sS'FIELDSET'
p205
S"<class 'gluon.html.FIELDSET'>"
p206
sS'IS_EQUAL_TO'
p207
S"<class 'gluon.validators.IS_EQUAL_TO'>"
p208
sS'embed64'
p209
S'<function embed64>'
p210
sS'IS_LIST_OF'
p211
S"<class 'gluon.validators.IS_LIST_OF'>"
p212
sS'__name__'
p213
S"'__restricted__'"
p214
sS'EMBED'
p215
S"<class 'gluon.html.EMBED'>"
p216
sS'_'
S'<function _>'
p217
sS'FORM'
p218
S"<class 'gluon.html.FORM'>"
p219
sS'H2'
p220
S"<class 'gluon.html.H2'>"
p221
sS'H3'
p222
S"<class 'gluon.html.H3'>"
p223
sS'BUTTON'
p224
S"<class 'gluon.html.BUTTON'>"
p225
sS'H1'
p226
S"<class 'gluon.html.H1'>"
p227
sS'H6'
p228
S"<class 'gluon.html.H6'>"
p229
sS'H4'
p230
S"<class 'gluon.html.H4'>"
p231
sS'H5'
p232
S"<class 'gluon.html.H5'>"
p233
sS'UL'
p234
S"<class 'gluon.html.UL'>"
p235
sS'IS_UPPER'
p236
S"<class 'gluon.validators.IS_UPPER'>"
p237
sS'xmlescape'
p238
S'<function xmlescape>'
p239
sS'IS_TIME'
p240
S"<class 'gluon.validators.IS_TIME'>"
p241
sS'OPTION'
p242
S"<class 'gluon.html.OPTION'>"
p243
sS'TITLE'
p244
S"<class 'gluon.html.TITLE'>"
p245
sS'CRYPT'
p246
S"<class 'gluon.validators.CRYPT'>"
p247
sS'IS_EMPTY_OR'
p248
S"<class 'gluon.validators.IS_EMPTY_OR'>"
p249
sS'MARKMIN'
p250
S"<class 'gluon.html.MARKMIN'>"
p251
sS'INPUT'
p252
S"<class 'gluon.html.INPUT'>"
p253
sS'STRONG'
p254
S"<class 'gluon.html.STRONG'>"
p255
sS'COL'
p256
S"<class 'gluon.html.COL'>"
p257
sS'SCRIPT'
p258
S"<class 'gluon.html.SCRIPT'>"
p259
sS'TABLE'
p260
S"<class 'gluon.html.TABLE'>"
p261
sS'IS_IPV4'
p262
S"<class 'gluon.validators.IS_IPV4'>"
p263
sS'IS_LENGTH'
p264
S"<class 'gluon.validators.IS_LENGTH'>"
p265
sS'IS_IPV6'
p266
S"<class 'gluon.validators.IS_IPV6'>"
p267
sS'XML'
p268
S"<class 'gluon.html.XML'>"
p269
sS'B'
S"<class 'gluon.html.B'>"
p270
sS'IMG'
p271
S"<class 'gluon.html.IMG'>"
p272
sS'SQLTABLE'
p273
S"<class 'gluon.sqlhtml.SQLTABLE'>"
p274
sS'IS_MATCH'
p275
S"<class 'gluon.validators.IS_MATCH'>"
p276
sS'IS_ALPHANUMERIC'
p277
S"<class 'gluon.validators.IS_ALPHANUMERIC'>"
p278
sS'SPAN'
p279
S"<class 'gluon.html.SPAN'>"
p280
sS'IS_JSON'
p281
S"<class 'gluon.validators.IS_JSON'>"
p282
sS'IS_IPADDRESS'
p283
S"<class 'gluon.validators.IS_IPADDRESS'>"
p284
sS'IS_SLUG'
p285
S"<class 'gluon.validators.IS_SLUG'>"
p286
sS'BEAUTIFY'
p287
S"<class 'gluon.html.BEAUTIFY'>"
p288
sS'META'
p289
S"<class 'gluon.html.META'>"
p290
sS'IS_DATE'
p291
S"<class 'gluon.validators.IS_DATE'>"
p292
sS'IS_EMAIL'
p293
S"<class 'gluon.validators.IS_EMAIL'>"
p294
sS'IS_NOT_EMPTY'
p295
S"<class 'gluon.validators.IS_NOT_EMPTY'>"
p296
sS'IS_FLOAT_IN_RANGE'
p297
S"<class 'gluon.validators.IS_FLOAT_IN_RANGE'>"
p298
sS'TBODY'
p299
S"<class 'gluon.html.TBODY'>"
p300
sS'CAT'
p301
S"<class 'gluon.html.CAT'>"
p302
sS'Field'
p303
S"<class 'gluon.dal.Field'>"
p304
sS'IS_LIST_OF_EMAILS'
p305
S"<class 'gluon.validators.IS_LIST_OF_EMAILS'>"
p306
sS'DIV'
p307
S"<class 'gluon.html.DIV'>"
p308
sS'LEGEND'
p309
S"<class 'gluon.html.LEGEND'>"
p310
sS'COLGROUP'
p311
S"<class 'gluon.html.COLGROUP'>"
p312
sS'DAL'
p313
S"<class 'gluon.dal.DAL'>"
p314
sS'TT'
p315
S"<class 'gluon.html.TT'>"
p316
sS'TR'
p317
S"<class 'gluon.html.TR'>"
p318
sS'LI'
p319
S"<class 'gluon.html.LI'>"
p320
sS'IFRAME'
p321
S"<class 'gluon.html.IFRAME'>"
p322
sS'TD'
p323
S"<class 'gluon.html.TD'>"
p324
sS'IS_URL'
p325
S"<class 'gluon.validators.IS_URL'>"
p326
sS'A'
S"<class 'gluon.html.A'>"
p327
sS'STYLE'
p328
S"<class 'gluon.html.STYLE'>"
p329
sS'IS_DATETIME_IN_RANGE'
p330
S"<class 'gluon.validators.IS_DATETIME_IN_RANGE'>"
p331
sS'IS_IMAGE'
p332
S"<class 'gluon.validators.IS_IMAGE'>"
p333
sS'I'
S"<class 'gluon.html.I'>"
p334
sS'crud'
p335
S'<gluon.tools.Crud object>'
p336
sS'IS_NOT_IN_DB'
p337
S"<class 'gluon.validators.IS_NOT_IN_DB'>"
p338
sg108
S"<Storage {'body': <cStringIO.StringO object at 0...> at 0x10da6bb18>, 'view': 'default/index.html'}>"
p339
sS'THEAD'
p340
S"<class 'gluon.html.THEAD'>"
p341
sS'ANY_OF'
p342
S"<class 'gluon.validators.ANY_OF'>"
p343
sS'IS_NULL_OR'
p344
S"<class 'gluon.validators.IS_EMPTY_OR'>"
p345
sg56
S"<Storage {'_vars': None, 'function': 'index', 'c...Contents/Resources/applications/Worksheet_App/'}>"
p346
sS'IS_EXPR'
p347
S"<class 'gluon.validators.IS_EXPR'>"
p348
sS'T'
S'<gluon.languages.translator object>'
p349
sS'IS_IN_SET'
p350
S"<class 'gluon.validators.IS_IN_SET'>"
p351
sS'IS_UPLOAD_FILENAME'
p352
S"<class 'gluon.validators.IS_UPLOAD_FILENAME'>"
p353
sS'IS_DECIMAL_IN_RANGE'
p354
S"<class 'gluon.validators.IS_DECIMAL_IN_RANGE'>"
p355
sssS'traceback'
p356
S'Traceback (most recent call last):\n  File "/Applications/web2py.app/Contents/Resources/gluon/restricted.py", line 221, in restricted\n  File "/Applications/web2py.app/Contents/Resources/applications/Worksheet_App/views/default/index.html", line 1, in <module>\nNameError: name \'right_sidebar_enabled\' is not defined\n'
p357
s.