(dp1
S'output'
p2
S"<type 'exceptions.KeyError'> 'Cannot resolve reference problem_tye_given_test in problem_constant_test definition'"
p3
sS'layer'
p4
S'/Applications/web2py.app/Contents/Resources/applications/Worksheet_App/models/db.py'
p5
sS'code'
p6
S'from gluon.tools import Auth, Crud\n\ndb=DAL("sqlite://storage.sqlite")\nauth=Auth(db)\ncrud=Crud(db)\nauth.define_tables()\n\n#pulled from tracks\ndb.define_table("advisor",\n     Field("first_name","string"),\n     Field("last_name","string"),\n     Field("email","string"),\n     format=\'%(first_name)s %(last_name)s\')\n\n\n#pulled from tracks\ndb.define_table("student",\n     Field("first_name","string"),\n     Field("last_name","string"),\n     Field("email","string"),\n     Field("grad_year","integer"),\n     Field("advisor_id", \'reference advisor\'),\n     Field(\'service_hours\', \'integer\', default=0),\n     Field(\'registered\',\'boolean\',required=True),\n     format=\'%(first_name)s %(last_name)s\')\n     \ndb.student.advisor_id.requires=IS_IN_DB(db,db.advisor.id,\'%(first_name)s %(last_name)s\')\n\n\n#pulled from tracks\ndb.define_table("teacher",\n     Field("first_name","string"),\n     Field("last_name","string"),\n     Field("email","string"),\n     format=\'%(first_name)s %(last_name)s\')\n\n\n#pulled from tracks\ndb.define_table(\'chair\',\n                Field(\'first_name\',required=True),\n                Field(\'last_name\',required=True),\n                Field(\'email\',required=True),\n                format=\'%(first_name)s %(last_name)s\')\n \n\ndb.chair.email.requires=IS_EMAIL()\n\n\n#pulled from tracks\ndb.define_table(\'department\',\n                 Field(\'name\',required=True),\n                 Field(\'chair_id\',\'reference chair\', required=True),\n                 format=\'%(name)s\')\n                      \ndb.department.chair_id.requires=IS_IN_DB(db,db.chair.id,\'%(first_name)s %(last_name)s\')\n\n#pulled from tracks\ndb.define_table("course",\n     Field("name","string"),\n     Field("section","string"),\n     Field("department_id","reference department"),\n     Field("makes_rec","boolean"),\n     format=\'%(name)s Section-%(section)s\')\n\ndb.course.department_id.requires=IS_IN_DB(db,db.department.id,\'%(name)s\')\n\n#pulled from tracks\ndb.define_table(\'student_course\',\n                Field(\'student_id\',\'reference student\', required=True),\n                Field(\'course_id\',\'reference course\',required=True),\n                format=\'%(student_id)s-%(course_id)s\')\n\ndb.student_course.student_id.requires=IS_IN_DB(db,db.student.id,\'%(first_name)s %(last_name)s\')\ndb.student_course.course_id.requires=IS_IN_DB(db,db.course.id,\'%(name)s Section-%(section)s\')\n\n\n\n#pulled from tracks\ndb.define_table(\'teacher_course\',\n                Field(\'teacher_id\',\'reference teacher\', required=True),\n                Field(\'course_id\',\'reference course\',required=True),\n                format=\'%(teacher_id)s-%(course_id)s\')\n\n\ndb.teacher_course.teacher_id.requires=IS_IN_DB(db,db.teacher.id,\'%(first_name)s %(last_name)s\')\ndb.teacher_course.course_id.requires=IS_IN_DB(db,db.course.id,\'%(name)s Section-%(section)s\')\n\ndb.define_table(\'problem_type\',\n                Field(\'teacher_id\',\'reference auth_user\',required=True),\n                Field(\'name\',\'string\',required=True),\n                Field(\'num_givens\',\'integer\',required=True),\n                Field(\'prompt\',\'string\',required=True),\n                Field(\'sol_alg\',\'string\',required=True),\n                format=\'%(name)s\')\n\n#test database begins here\ndb.define_table(\'problem_type_test\',\n                Field(\'teacher_id\',\'reference auth_user\',required=True),\n                Field(\'name\',\'string\',required=True),\n                Field(\'num_givens\',\'integer\',required=True),\n                Field(\'prompt\',\'string\',required=True),\n                Field(\'sol_alg\',\'string\',required=True),\n                format=\'%(name)s\')\n\ndb.define_table(\'problem_type_given_test\',\n                Field(\'problem_type_id\',\'reference problem_type_test\',required=True),\n                Field(\'label\',\'string\',required=True),\n                Field(\'lowerBound\',\'integer\',required=True),\n                Field(\'upperBound\',\'integer\',required=True))\n\ndb.define_table(\'problem_test\',\n                Field(\'user_id\',\'reference auth_user\',required=True),\n                Field(\'problem_type_id\',\'reference problem_type_test\',required=True),\n                Field(\'answered\',\'boolean\',default=False,required=True),\n                Field(\'solution\',\'decimal(2,10)\',required=True),\n                format=\'%(id)s\')\n\ndb.define_table(\'problem_constant_test\',\n                Field(\'problem_id\',\'reference problem_test\',required=True),\n                Field(\'user_id\',\'reference auth_user\',required=True),\n                Field(\'problem_type_id\',\'reference problem_type_test\',required=True),\n                Field(\'problem_given\',\'reference problem_tye_given_test\',required=True),\n                Field(\'constant\',\'decimal(2,10)\',required=True))\n\n#test database ends here\n\ndb.define_table(\'problem_type_course\',\n                Field(\'problem_type_id\',\'reference problem_type\',required=True),\n                Field(\'course_id\',\'reference course\',required=True),\n                )\n\ndb.define_table(\'problem\',\n                Field(\'user_id\',\'reference auth_user\',required=True),\n                Field(\'problem_type_id\',\'reference problem_type\',required=True),\n                Field(\'answered\',\'boolean\',default=False,required=True),\n                Field(\'solution\',\'decimal(2,10)\',required=True),\n                format=\'%(id)s\')\n\ndb.define_table(\'problem_given\',\n                Field(\'problem_id\',\'reference problem\',required=True),\n                Field(\'user_id\',\'reference auth_user\',required=True),\n                Field(\'problem_type_id\',\'reference problem_type\',required=True),\n                Field(\'given\',\'decimal(2,10)\',required=True))\n\n#num_tries currently does not update in controller\ndb.define_table(\'user_score\',\n                Field(\'user_id\',\'reference auth_user\',required=True),\n                Field(\'problem_type_id\',\'reference problem_type\',required=True),\n                Field(\'num_tries\',\'integer\',required=True),\n                Field(\'num_solved\',\'integer\',required=True))\n'
p7
sS'snapshot'
p8
(dp9
S'exception'
p10
(dp11
S'__hash__'
p12
S"<method-wrapper '__hash__' of exceptions.KeyError object>"
p13
sS'__setattr__'
p14
S"<method-wrapper '__setattr__' of exceptions.KeyError object>"
p15
sS'__reduce_ex__'
p16
S'<built-in method __reduce_ex__ of exceptions.KeyError object>'
p17
sS'__getslice__'
p18
S"<method-wrapper '__getslice__' of exceptions.KeyError object>"
p19
sS'__getitem__'
p20
S"<method-wrapper '__getitem__' of exceptions.KeyError object>"
p21
sS'__setstate__'
p22
S'<built-in method __setstate__ of exceptions.KeyError object>'
p23
sS'args'
p24
S"('Cannot resolve reference problem_tye_given_test in problem_constant_test definition',)"
p25
sS'__reduce__'
p26
S'<built-in method __reduce__ of exceptions.KeyError object>'
p27
sS'__str__'
p28
S"<method-wrapper '__str__' of exceptions.KeyError object>"
p29
sS'__format__'
p30
S'<built-in method __format__ of exceptions.KeyError object>'
p31
sS'__getattribute__'
p32
S"<method-wrapper '__getattribute__' of exceptions.KeyError object>"
p33
sS'__class__'
p34
S"<type 'exceptions.KeyError'>"
p35
sS'__unicode__'
p36
S'<built-in method __unicode__ of exceptions.KeyError object>'
p37
sS'__delattr__'
p38
S"<method-wrapper '__delattr__' of exceptions.KeyError object>"
p39
sS'__subclasshook__'
p40
S'<built-in method __subclasshook__ of type object>'
p41
sS'__repr__'
p42
S"<method-wrapper '__repr__' of exceptions.KeyError object>"
p43
sS'__dict__'
p44
S'{}'
p45
sS'__sizeof__'
p46
S'<built-in method __sizeof__ of exceptions.KeyError object>'
p47
sS'__doc__'
p48
S"'Mapping key not found.'"
p49
sS'__init__'
p50
S"<method-wrapper '__init__' of exceptions.KeyError object>"
p51
sS'__new__'
p52
S'<built-in method __new__ of type object>'
p53
ssS'evalue'
p54
S"'Cannot resolve reference problem_tye_given_test in problem_constant_test definition'"
p55
sS'request'
p56
cgluon.html
XML_unpickle
p57
(S'sU`\x00\x00<div><table><tr><td style="font-weight:bold;vertical-align:top;">ajax</td><td style="vertical-align:top;">:</td><td><div>False</div></td></tr><tr><td style="font-weight:bold;vertical-align:top;">application</td><td style="vertical-align:top;">:</td><td><div>Worksheet_App</div></td></tr><tr><td style="font-weight:bold;vertical-align:top;">args</td><td style="vertical-align:top;">:</td><td><div><table></table></div></td></tr><tr><td style="font-weight:bold;vertical-align:top;">cid</td><td style="vertical-align:top;">:</td><td><div>None</div></td></tr><tr><td style="font-weight:bold;vertical-align:top;">client</td><td style="vertical-align:top;">:</td><td><div>127.0.0.1</div></td></tr><tr><td style="font-weight:bold;vertical-align:top;">controller</td><td style="vertical-align:top;">:</td><td><div>appadmin</div></td></tr><tr><td style="font-weight:bold;vertical-align:top;">cookies</td><td style="vertical-align:top;">:</td><td><div><table><tr><td style="font-weight:bold;vertical-align:top;">session_id_admin</td><td style="vertical-align:top;">:</td><td><div>127.0.0.1-b3bdd2b2-6d61-46c4-bde3-36553d14e2e2<table><tr><td style="font-weight:bold;vertical-align:top;">comment</td><td style="vertical-align:top;">:</td><td><div></div></td></tr><tr><td style="font-weight:bold;vertical-align:top;">domain</td><td style="vertical-align:top;">:</td><td><div></div></td></tr><tr><td style="font-weight:bold;vertical-align:top;">expires</td><td style="vertical-align:top;">:</td><td><div></div></td></tr><tr><td style="font-weight:bold;vertical-align:top;">httponly</td><td style="vertical-align:top;">:</td><td><div></div></td></tr><tr><td style="font-weight:bold;vertical-align:top;">max-age</td><td style="vertical-align:top;">:</td><td><div></div></td></tr><tr><td style="font-weight:bold;vertical-align:top;">path</td><td style="vertical-align:top;">:</td><td><div></div></td></tr><tr><td style="font-weight:bold;vertical-align:top;">secure</td><td style="vertical-align:top;">:</td><td><div></div></td></tr><tr><td style="font-weight:bold;vertical-align:top;">version</td><td style="vertical-align:top;">:</td><td><div></div></td></tr></table></div></td></tr><tr><td style="font-weight:bold;vertical-align:top;">session_id_welcome</td><td style="vertical-align:top;">:</td><td><div>127.0.0.1-02e11696-3148-4d20-ba2a-839ef032da92<table><tr><td style="font-weight:bold;vertical-align:top;">comment</td><td style="vertical-align:top;">:</td><td><div></div></td></tr><tr><td style="font-weight:bold;vertical-align:top;">domain</td><td style="vertical-align:top;">:</td><td><div></div></td></tr><tr><td style="font-weight:bold;vertical-align:top;">expires</td><td style="vertical-align:top;">:</td><td><div></div></td></tr><tr><td style="font-weight:bold;vertical-align:top;">httponly</td><td style="vertical-align:top;">:</td><td><div></div></td></tr><tr><td style="font-weight:bold;vertical-align:top;">max-age</td><td style="vertical-align:top;">:</td><td><div></div></td></tr><tr><td style="font-weight:bold;vertical-align:top;">path</td><td style="vertical-align:top;">:</td><td><div></div></td></tr><tr><td style="font-weight:bold;vertical-align:top;">secure</td><td style="vertical-align:top;">:</td><td><div></div></td></tr><tr><td style="font-weight:bold;vertical-align:top;">version</td><td style="vertical-align:top;">:</td><td><div></div></td></tr></table></div></td></tr><tr><td style="font-weight:bold;vertical-align:top;">session_id_worksheet_app</td><td style="vertical-align:top;">:</td><td><div>127.0.0.1-b3a54700-715a-413a-8c34-234824f3f305<table><tr><td style="font-weight:bold;vertical-align:top;">comment</td><td style="vertical-align:top;">:</td><td><div></div></td></tr><tr><td style="font-weight:bold;vertical-align:top;">domain</td><td style="vertical-align:top;">:</td><td><div></div></td></tr><tr><td style="font-weight:bold;vertical-align:top;">expires</td><td style="vertical-align:top;">:</td><td><div></div></td></tr><tr><td style="font-weight:bold;vertical-align:top;">httponly</td><td style="vertical-align:top;">:</td><td><div></div></td></tr><tr><td style="font-weight:bold;vertical-align:top;">max-age</td><td style="vertical-align:top;">:</td><td><div></div></td></tr><tr><td style="font-weight:bold;vertical-align:top;">path</td><td style="vertical-align:top;">:</td><td><div></div></td></tr><tr><td style="font-weight:bold;vertical-align:top;">secure</td><td style="vertical-align:top;">:</td><td><div></div></td></tr><tr><td style="font-weight:bold;vertical-align:top;">version</td><td style="vertical-align:top;">:</td><td><div></div></td></tr></table></div></td></tr></table></div></td></tr><tr><td style="font-weight:bold;vertical-align:top;">env</td><td style="vertical-align:top;">:</td><td><div><table><tr><td style="font-weight:bold;vertical-align:top;">HTTP_ACCEPT</td><td style="vertical-align:top;">:</td><td><div>text/html,application/xhtml+xml,application/xml;q=0.9,image/webp,*/*;q=0.8</div></td></tr><tr><td style="font-weight:bold;vertical-align:top;">HTTP_ACCEPT_ENCODING</td><td style="vertical-align:top;">:</td><td><div>gzip, deflate, sdch</div></td></tr><tr><td style="font-weight:bold;vertical-align:top;">HTTP_ACCEPT_LANGUAGE</td><td style="vertical-align:top;">:</td><td><div>en-US,en;q=0.8</div></td></tr><tr><td style="font-weight:bold;vertical-align:top;">HTTP_CONNECTION</td><td style="vertical-align:top;">:</td><td><div>keep-alive</div></td></tr><tr><td style="font-weight:bold;vertical-align:top;">HTTP_COOKIE</td><td style="vertical-align:top;">:</td><td><div>session_id_worksheet_app=127.0.0.1-b3a54700-715a-413a-8c34-234824f3f305; session_id_welcome=127.0.0.1-02e11696-3148-4d20-ba2a-839ef032da92; session_id_admin=127.0.0.1-b3bdd2b2-6d61-46c4-bde3-36553d14e2e2</div></td></tr><tr><td style="font-weight:bold;vertical-align:top;">HTTP_HOST</td><td style="vertical-align:top;">:</td><td><div>127.0.0.1:8000</div></td></tr><tr><td style="font-weight:bold;vertical-align:top;">HTTP_REFERER</td><td style="vertical-align:top;">:</td><td><div>http://127.0.0.1:8000/admin/default/design/Worksheet_App</div></td></tr><tr><td style="font-weight:bold;vertical-align:top;">HTTP_UPGRADE_INSECURE_REQUESTS</td><td style="vertical-align:top;">:</td><td><div>1</div></td></tr><tr><td style="font-weight:bold;vertical-align:top;">HTTP_USER_AGENT</td><td style="vertical-align:top;">:</td><td><div>Mozilla/5.0 (Macintosh; Intel Mac OS X 10_11_1) AppleWebKit/537.36 (KHTML, like Gecko) Chrome/47.0.2526.80 Safari/537.36</div></td></tr><tr><td style="font-weight:bold;vertical-align:top;">PATH_INFO</td><td style="vertical-align:top;">:</td><td><div>/Worksheet_App/appadmin/index</div></td></tr><tr><td style="font-weight:bold;vertical-align:top;">QUERY_STRING</td><td style="vertical-align:top;">:</td><td><div></div></td></tr><tr><td style="font-weight:bold;vertical-align:top;">REMOTE_ADDR</td><td style="vertical-align:top;">:</td><td><div>127.0.0.1</div></td></tr><tr><td style="font-weight:bold;vertical-align:top;">REMOTE_PORT</td><td style="vertical-align:top;">:</td><td><div>59635</div></td></tr><tr><td style="font-weight:bold;vertical-align:top;">REQUEST_METHOD</td><td style="vertical-align:top;">:</td><td><div>GET</div></td></tr><tr><td style="font-weight:bold;vertical-align:top;">SCRIPT_NAME</td><td style="vertical-align:top;">:</td><td><div></div></td></tr><tr><td style="font-weight:bold;vertical-align:top;">SERVER_NAME</td><td style="vertical-align:top;">:</td><td><div>Sophies-MacBook-Pro.local</div></td></tr><tr><td style="font-weight:bold;vertical-align:top;">SERVER_PORT</td><td style="vertical-align:top;">:</td><td><div>8000</div></td></tr><tr><td style="font-weight:bold;vertical-align:top;">SERVER_PROTOCOL</td><td style="vertical-align:top;">:</td><td><div>HTTP/1.1</div></td></tr><tr><td style="font-weight:bold;vertical-align:top;">SERVER_SOFTWARE</td><td style="vertical-align:top;">:</td><td><div>Rocket 1.2.6</div></td></tr><tr><td style="font-weight:bold;vertical-align:top;">app_folders</td><td style="vertical-align:top;">:</td><td><div>set([&#x27;/Applications/web2py.app/Contents/Resources/applications/admin/&#x27;, &#x27;/Applications/web2py.app/Contents/Resources/applications/welcome/&#x27;, &#x27;/Applications/web2py.app/Contents/Resources/applications/Worksheet_App/&#x27;])</div></td></tr><tr><td style="font-weight:bold;vertical-align:top;">applications_parent</td><td style="vertical-align:top;">:</td><td><div>/Applications/web2py.app/Contents/Resources</div></td></tr><tr><td style="font-weight:bold;vertical-align:top;">cmd_args</td><td style="vertical-align:top;">:</td><td><div><table></table></div></td></tr><tr><td style="font-weight:bold;vertical-align:top;">cmd_options</td><td style="vertical-align:top;">:</td><td><div>&lt;Values at 0x105dace60: {&#x27;verbose&#x27;: False, &#x27;ip&#x27;: &#x27;127.0.0.1&#x27;, &#x27;debuglevel&#x27;: 30, &#x27;with_scheduler&#x27;: False, &#x27;ips&#x27;: [&#x27;10.0.0.17&#x27;, &#x27;fe80::3e15:c2ff:fec2:7f18%en0&#x27;, &#x27;2601:4a:402:340:3e15:c2ff:fec2:7f18&#x27;], &#x27;shutdown_timeout&#x27;: 5, &#x27;taskbar&#x27;: False, &#x27;with_coverage&#x27;: False, &#x27;scheduler_groups&#x27;: None, &#x27;port&#x27;: 8000, &#x27;maxthreads&#x27;: None, &#x27;softcron&#x27;: False, &#x27;server_name&#x27;: &#x27;Sophies-MacBook-Pro.local&#x27;, &#x27;bpython&#x27;: False, &#x27;nogui&#x27;: False, &#x27;pid_filename&#x27;: &#x27;httpserver.pid&#x27;, &#x27;extcron&#x27;: False, &#x27;runcron&#x27;: False, &#x27;run_system_tests&#x27;: False, &#x27;test&#x27;: None, &#x27;folder&#x27;: &#x27;/Applications/web2py.app/Contents/Resources&#x27;, &#x27;config&#x27;: &#x27;&#x27;, &#x27;minthreads&#x27;: None, &#x27;shell&#x27;: None, &#x27;run&#x27;: &#x27;&#x27;, &#x27;log_filename&#x27;: &#x27;httpserver.log&#x27;, &#x27;profiler_dir&#x27;: None, &#x27;args&#x27;: [&#x27;&#x27;], &#x27;socket_timeout&#x27;: 5, &#x27;ssl_ca_certificate&#x27;: None, &#x27;scheduler&#x27;: None, &#x27;interfaces&#x27;: None, &#x27;ssl_private_key&#x27;: &#x27;&#x27;, &#x27;gae&#x27;: None, &#x27;password&#x27;: &#x27;&lt;ask&gt;&#x27;, &#x27;request_queue_size&#x27;: 5, &#x27;ssl_certificate&#x27;: &#x27;&#x27;, &#x27;cronjob&#x27;: False, &#x27;numthreads&#x27;: None, &#x27;quiet&#x27;: False, &#x27;import_models&#x27;: False, &#x27;timeout&#x27;: 10, &#x27;plain&#x27;: False, &#x27;nobanner&#x27;: False}&gt;</div></td></tr><tr><td style="font-weight:bold;vertical-align:top;">db_sessions</td><td style="vertical-align:top;">:</td><td><div>set([])</div></td></tr><tr><td style="font-weight:bold;vertical-align:top;">debugging</td><td style="vertical-align:top;">:</td><td><div>True</div></td></tr><tr><td style="font-weight:bold;vertical-align:top;">gluon_parent</td><td style="vertical-align:top;">:</td><td><div>/Applications/web2py.app/Contents/Resources</div></td></tr><tr><td style="font-weight:bold;vertical-align:top;">http_accept</td><td style="vertical-align:top;">:</td><td><div>text/html,application/xhtml+xml,application/xml;q=0.9,image/webp,*/*;q=0.8</div></td></tr><tr><td style="font-weight:bold;vertical-align:top;">http_accept_encoding</td><td style="vertical-align:top;">:</td><td><div>gzip, deflate, sdch</div></td></tr><tr><td style="font-weight:bold;vertical-align:top;">http_accept_language</td><td style="vertical-align:top;">:</td><td><div>en-US,en;q=0.8</div></td></tr><tr><td style="font-weight:bold;vertical-align:top;">http_connection</td><td style="vertical-align:top;">:</td><td><div>keep-alive</div></td></tr><tr><td style="font-weight:bold;vertical-align:top;">http_cookie</td><td style="vertical-align:top;">:</td><td><div>session_id_worksheet_app=127.0.0.1-b3a54700-715a-413a-8c34-234824f3f305; session_id_welcome=127.0.0.1-02e11696-3148-4d20-ba2a-839ef032da92; session_id_admin=127.0.0.1-b3bdd2b2-6d61-46c4-bde3-36553d14e2e2</div></td></tr><tr><td style="font-weight:bold;vertical-align:top;">http_host</td><td style="vertical-align:top;">:</td><td><div>127.0.0.1:8000</div></td></tr><tr><td style="font-weight:bold;vertical-align:top;">http_referer</td><td style="vertical-align:top;">:</td><td><div>http://127.0.0.1:8000/admin/default/design/Worksheet_App</div></td></tr><tr><td style="font-weight:bold;vertical-align:top;">http_upgrade_insecure_requests</td><td style="vertical-align:top;">:</td><td><div>1</div></td></tr><tr><td style="font-weight:bold;vertical-align:top;">http_user_agent</td><td style="vertical-align:top;">:</td><td><div>Mozilla/5.0 (Macintosh; Intel Mac OS X 10_11_1) AppleWebKit/537.36 (KHTML, like Gecko) Chrome/47.0.2526.80 Safari/537.36</div></td></tr><tr><td style="font-weight:bold;vertical-align:top;">is_jython</td><td style="vertical-align:top;">:</td><td><div>False</div></td></tr><tr><td style="font-weight:bold;vertical-align:top;">is_pypy</td><td style="vertical-align:top;">:</td><td><div>False</div></td></tr><tr><td style="font-weight:bold;vertical-align:top;">is_source</td><td style="vertical-align:top;">:</td><td><div>True</div></td></tr><tr><td style="font-weight:bold;vertical-align:top;">local_hosts</td><td style="vertical-align:top;">:</td><td><div><table><tr><td><div>10.0.0.17</div></td></tr><tr><td><div>fe80::3e15:c2ff:fec2:7f18%en0</div></td></tr><tr><td><div>::ffff:127.0.0.1</div></td></tr><tr><td><div>::1</div></td></tr><tr><td><div>Sophies-MacBook-Pro.local</div></td></tr><tr><td><div>127.0.0.1</div></td></tr><tr><td><div>2601:4a:402:340:3e15:c2ff:fec2:7f18</div></td></tr><tr><td><div>sophies-macbook-pro.local</div></td></tr></table></div></td></tr><tr><td style="font-weight:bold;vertical-align:top;">path_info</td><td style="vertical-align:top;">:</td><td><div>/Worksheet_App/appadmin/index</div></td></tr><tr><td style="font-weight:bold;vertical-align:top;">query_string</td><td style="vertical-align:top;">:</td><td><div></div></td></tr><tr><td style="font-weight:bold;vertical-align:top;">remote_addr</td><td style="vertical-align:top;">:</td><td><div>127.0.0.1</div></td></tr><tr><td style="font-weight:bold;vertical-align:top;">remote_port</td><td style="vertical-align:top;">:</td><td><div>59635</div></td></tr><tr><td style="font-weight:bold;vertical-align:top;">request_method</td><td style="vertical-align:top;">:</td><td><div>GET</div></td></tr><tr><td style="font-weight:bold;vertical-align:top;">request_uri</td><td style="vertical-align:top;">:</td><td><div>/Worksheet_App/appadmin/index</div></td></tr><tr><td style="font-weight:bold;vertical-align:top;">script_name</td><td style="vertical-align:top;">:</td><td><div></div></td></tr><tr><td style="font-weight:bold;vertical-align:top;">server_name</td><td style="vertical-align:top;">:</td><td><div>Sophies-MacBook-Pro.local</div></td></tr><tr><td style="font-weight:bold;vertical-align:top;">server_port</td><td style="vertical-align:top;">:</td><td><div>8000</div></td></tr><tr><td style="font-weight:bold;vertical-align:top;">server_protocol</td><td style="vertical-align:top;">:</td><td><div>HTTP/1.1</div></td></tr><tr><td style="font-weight:bold;vertical-align:top;">server_software</td><td style="vertical-align:top;">:</td><td><div>Rocket 1.2.6</div></td></tr><tr><td style="font-weight:bold;vertical-align:top;">web2py_path</td><td style="vertical-align:top;">:</td><td><div>/Applications/web2py.app/Contents/Resources</div></td></tr><tr><td style="font-weight:bold;vertical-align:top;">web2py_version</td><td style="vertical-align:top;">:</td><td><div>2.9.6-stable+timestamp.2014.09.02.01.57.55</div></td></tr><tr><td style="font-weight:bold;vertical-align:top;">wsgi.errors</td><td style="vertical-align:top;">:</td><td><div>&lt;open file &#x27;&lt;stderr&gt;&#x27;, mode &#x27;w&#x27; at 0x10005b270&gt;</div></td></tr><tr><td style="font-weight:bold;vertical-align:top;">wsgi.file_wrapper</td><td style="vertical-align:top;">:</td><td><div>&lt;class wsgiref.util.FileWrapper at 0x105d58e20&gt;</div></td></tr><tr><td style="font-weight:bold;vertical-align:top;">wsgi.input</td><td style="vertical-align:top;">:</td><td><div>&lt;socket._fileobject object at 0x1077b1950&gt;</div></td></tr><tr><td style="font-weight:bold;vertical-align:top;">wsgi.multiprocess</td><td style="vertical-align:top;">:</td><td><div>False</div></td></tr><tr><td style="font-weight:bold;vertical-align:top;">wsgi.multithread</td><td style="vertical-align:top;">:</td><td><div>True</div></td></tr><tr><td style="font-weight:bold;vertical-align:top;">wsgi.run_once</td><td style="vertical-align:top;">:</td><td><div>False</div></td></tr><tr><td style="font-weight:bold;vertical-align:top;">wsgi.url_scheme</td><td style="vertical-align:top;">:</td><td><div>http</div></td></tr><tr><td style="font-weight:bold;vertical-align:top;">wsgi.version</td><td style="vertical-align:top;">:</td><td><div><table><tr><td><div>1</div></td></tr><tr><td><div>0</div></td></tr></table></div></td></tr><tr><td style="font-weight:bold;vertical-align:top;">wsgi_errors</td><td style="vertical-align:top;">:</td><td><div>&lt;open file &#x27;&lt;stderr&gt;&#x27;, mode &#x27;w&#x27; at 0x10005b270&gt;</div></td></tr><tr><td style="font-weight:bold;vertical-align:top;">wsgi_file_wrapper</td><td style="vertical-align:top;">:</td><td><div>&lt;class wsgiref.util.FileWrapper at 0x105d58e20&gt;</div></td></tr><tr><td style="font-weight:bold;vertical-align:top;">wsgi_input</td><td style="vertical-align:top;">:</td><td><div>&lt;socket._fileobject object at 0x1077b1950&gt;</div></td></tr><tr><td style="font-weight:bold;vertical-align:top;">wsgi_multiprocess</td><td style="vertical-align:top;">:</td><td><div>False</div></td></tr><tr><td style="font-weight:bold;vertical-align:top;">wsgi_multithread</td><td style="vertical-align:top;">:</td><td><div>True</div></td></tr><tr><td style="font-weight:bold;vertical-align:top;">wsgi_run_once</td><td style="vertical-align:top;">:</td><td><div>False</div></td></tr><tr><td style="font-weight:bold;vertical-align:top;">wsgi_url_scheme</td><td style="vertical-align:top;">:</td><td><div>http</div></td></tr><tr><td style="font-weight:bold;vertical-align:top;">wsgi_version</td><td style="vertical-align:top;">:</td><td><div><table><tr><td><div>1</div></td></tr><tr><td><div>0</div></td></tr></table></div></td></tr></table></div></td></tr><tr><td style="font-weight:bold;vertical-align:top;">extension</td><td style="vertical-align:top;">:</td><td><div>html</div></td></tr><tr><td style="font-weight:bold;vertical-align:top;">folder</td><td style="vertical-align:top;">:</td><td><div>/Applications/web2py.app/Contents/Resources/applications/Worksheet_App/</div></td></tr><tr><td style="font-weight:bold;vertical-align:top;">function</td><td style="vertical-align:top;">:</td><td><div>index</div></td></tr><tr><td style="font-weight:bold;vertical-align:top;">global_settings</td><td style="vertical-align:top;">:</td><td><div><table><tr><td style="font-weight:bold;vertical-align:top;">app_folders</td><td style="vertical-align:top;">:</td><td><div>set([&#x27;/Applications/web2py.app/Contents/Resources/applications/admin/&#x27;, &#x27;/Applications/web2py.app/Contents/Resources/applications/welcome/&#x27;, &#x27;/Applications/web2py.app/Contents/Resources/applications/Worksheet_App/&#x27;])</div></td></tr><tr><td style="font-weight:bold;vertical-align:top;">applications_parent</td><td style="vertical-align:top;">:</td><td><div>/Applications/web2py.app/Contents/Resources</div></td></tr><tr><td style="font-weight:bold;vertical-align:top;">cmd_args</td><td style="vertical-align:top;">:</td><td><div><table></table></div></td></tr><tr><td style="font-weight:bold;vertical-align:top;">cmd_options</td><td style="vertical-align:top;">:</td><td><div>&lt;Values at 0x105dace60: {&#x27;verbose&#x27;: False, &#x27;ip&#x27;: &#x27;127.0.0.1&#x27;, &#x27;debuglevel&#x27;: 30, &#x27;with_scheduler&#x27;: False, &#x27;ips&#x27;: [&#x27;10.0.0.17&#x27;, &#x27;fe80::3e15:c2ff:fec2:7f18%en0&#x27;, &#x27;2601:4a:402:340:3e15:c2ff:fec2:7f18&#x27;], &#x27;shutdown_timeout&#x27;: 5, &#x27;taskbar&#x27;: False, &#x27;with_coverage&#x27;: False, &#x27;scheduler_groups&#x27;: None, &#x27;port&#x27;: 8000, &#x27;maxthreads&#x27;: None, &#x27;softcron&#x27;: False, &#x27;server_name&#x27;: &#x27;Sophies-MacBook-Pro.local&#x27;, &#x27;bpython&#x27;: False, &#x27;nogui&#x27;: False, &#x27;pid_filename&#x27;: &#x27;httpserver.pid&#x27;, &#x27;extcron&#x27;: False, &#x27;runcron&#x27;: False, &#x27;run_system_tests&#x27;: False, &#x27;test&#x27;: None, &#x27;folder&#x27;: &#x27;/Applications/web2py.app/Contents/Resources&#x27;, &#x27;config&#x27;: &#x27;&#x27;, &#x27;minthreads&#x27;: None, &#x27;shell&#x27;: None, &#x27;run&#x27;: &#x27;&#x27;, &#x27;log_filename&#x27;: &#x27;httpserver.log&#x27;, &#x27;profiler_dir&#x27;: None, &#x27;args&#x27;: [&#x27;&#x27;], &#x27;socket_timeout&#x27;: 5, &#x27;ssl_ca_certificate&#x27;: None, &#x27;scheduler&#x27;: None, &#x27;interfaces&#x27;: None, &#x27;ssl_private_key&#x27;: &#x27;&#x27;, &#x27;gae&#x27;: None, &#x27;password&#x27;: &#x27;&lt;ask&gt;&#x27;, &#x27;request_queue_size&#x27;: 5, &#x27;ssl_certificate&#x27;: &#x27;&#x27;, &#x27;cronjob&#x27;: False, &#x27;numthreads&#x27;: None, &#x27;quiet&#x27;: False, &#x27;import_models&#x27;: False, &#x27;timeout&#x27;: 10, &#x27;plain&#x27;: False, &#x27;nobanner&#x27;: False}&gt;</div></td></tr><tr><td style="font-weight:bold;vertical-align:top;">db_sessions</td><td style="vertical-align:top;">:</td><td><div>set([])</div></td></tr><tr><td style="font-weight:bold;vertical-align:top;">debugging</td><td style="vertical-align:top;">:</td><td><div>True</div></td></tr><tr><td style="font-weight:bold;vertical-align:top;">gluon_parent</td><td style="vertical-align:top;">:</td><td><div>/Applications/web2py.app/Contents/Resources</div></td></tr><tr><td style="font-weight:bold;vertical-align:top;">is_jython</td><td style="vertical-align:top;">:</td><td><div>False</div></td></tr><tr><td style="font-weight:bold;vertical-align:top;">is_pypy</td><td style="vertical-align:top;">:</td><td><div>False</div></td></tr><tr><td style="font-weight:bold;vertical-align:top;">is_source</td><td style="vertical-align:top;">:</td><td><div>True</div></td></tr><tr><td style="font-weight:bold;vertical-align:top;">local_hosts</td><td style="vertical-align:top;">:</td><td><div><table><tr><td><div>10.0.0.17</div></td></tr><tr><td><div>fe80::3e15:c2ff:fec2:7f18%en0</div></td></tr><tr><td><div>::ffff:127.0.0.1</div></td></tr><tr><td><div>::1</div></td></tr><tr><td><div>Sophies-MacBook-Pro.local</div></td></tr><tr><td><div>127.0.0.1</div></td></tr><tr><td><div>2601:4a:402:340:3e15:c2ff:fec2:7f18</div></td></tr><tr><td><div>sophies-macbook-pro.local</div></td></tr></table></div></td></tr><tr><td style="font-weight:bold;vertical-align:top;">web2py_version</td><td style="vertical-align:top;">:</td><td><div>2.9.6-stable+timestamp.2014.09.02.01.57.55</div></td></tr></table></div></td></tr><tr><td style="font-weight:bold;vertical-align:top;">is_https</td><td style="vertical-align:top;">:</td><td><div>False</div></td></tr><tr><td style="font-weight:bold;vertical-align:top;">is_local</td><td style="vertical-align:top;">:</td><td><div>True</div></td></tr><tr><td style="font-weight:bold;vertical-align:top;">is_restful</td><td style="vertical-align:top;">:</td><td><div>False</div></td></tr><tr><td style="font-weight:bold;vertical-align:top;">is_sheduler</td><td style="vertical-align:top;">:</td><td><div>None</div></td></tr><tr><td style="font-weight:bold;vertical-align:top;">is_shell</td><td style="vertical-align:top;">:</td><td><div>None</div></td></tr><tr><td style="font-weight:bold;vertical-align:top;">now</td><td style="vertical-align:top;">:</td><td><div>datetime.datetime(2015, 12, 13, 18, 22, 40, 618644)</div></td></tr><tr><td style="font-weight:bold;vertical-align:top;">raw_args</td><td style="vertical-align:top;">:</td><td><div></div></td></tr><tr><td style="font-weight:bold;vertical-align:top;">raw_extension</td><td style="vertical-align:top;">:</td><td><div>None</div></td></tr><tr><td style="font-weight:bold;vertical-align:top;">url</td><td style="vertical-align:top;">:</td><td><div>/Worksheet_App/appadmin/index</div></td></tr><tr><td style="font-weight:bold;vertical-align:top;">utcnow</td><td style="vertical-align:top;">:</td><td><div>datetime.datetime(2015, 12, 13, 23, 22, 40, 618654)</div></td></tr><tr><td style="font-weight:bold;vertical-align:top;">uuid</td><td style="vertical-align:top;">:</td><td><div>Worksheet_App/127.0.0.1.2015-12-13.18-22-40.f9f14ec9-4012-43eb-b93a-f9a602168e65</div></td></tr><tr><td style="font-weight:bold;vertical-align:top;">wsgi</td><td style="vertical-align:top;">:</td><td><div>&lt;gluon.main.LazyWSGI object at 0x1074be290&gt;</div></td></tr></table></div>'
tRp58
sS'frames'
p59
(lp60
(dp61
S'file'
p62
S'/Applications/web2py.app/Contents/Resources/gluon/restricted.py'
p63
sS'dump'
p64
(dp65
sS'lnum'
p66
I221
sS'lines'
p67
(dp68
I224
S'    except RestrictedError:'
p69
sI225
S'        # do not encapsulate (obfuscate) the original RestrictedError'
p70
sI216
S'    try:'
p71
sI217
S'        if isinstance(code, types.CodeType):'
p72
sI218
S'            ccode = code'
p73
sI219
S'        else:'
p74
sI220
S'            ccode = compile2(code, layer)'
p75
sI221
S'        exec ccode in environment'
p76
sI222
S'    except HTTP:'
p77
sI223
S'        raise'
p78
ssS'call'
p79
S'(code=\'from gluon.tools import Auth, Crud\\n\\ndb=DAL("sqli...    Field(\\\'num_solved\\\',\\\'integer\\\',required=True))\\n\', environment={\'A\': <class \'gluon.html.A\'>, \'ANY_OF\': <class \'gluon.validators.ANY_OF\'>, \'Auth\': <class \'gluon.tools.Auth\'>, \'B\': <class \'gluon.html.B\'>, \'BEAUTIFY\': <class \'gluon.html.BEAUTIFY\'>, \'BODY\': <class \'gluon.html.BODY\'>, \'BR\': <class \'gluon.html.BR\'>, \'BUTTON\': <class \'gluon.html.BUTTON\'>, \'CAT\': <class \'gluon.html.CAT\'>, \'CENTER\': <class \'gluon.html.CENTER\'>, ...}, layer=\'/Applications/web2py.app/Contents/Resources/applications/Worksheet_App/models/db.py\')'
p80
sS'func'
p81
S'restricted'
p82
sa(dp83
g62
S'/Applications/web2py.app/Contents/Resources/applications/Worksheet_App/models/db.py'
p84
sg64
(dp85
sg66
I123
sg67
(dp86
I118
S"db.define_table('problem_constant_test',"
p87
sI119
S"                Field('problem_id','reference problem_test',required=True),"
p88
sI120
S"                Field('user_id','reference auth_user',required=True),"
p89
sI121
S"                Field('problem_type_id','reference problem_type_test',required=True),"
p90
sI122
S"                Field('problem_given','reference problem_tye_given_test',required=True),"
p91
sI123
S"                Field('constant','decimal(2,10)',required=True))"
p92
sI124
S''
sI125
S'#test database ends here'
p93
sI126
S''
sI127
S"db.define_table('problem_type_course',"
p94
ssg79
S'()'
p95
sg81
S'<module>'
p96
sa(dp97
g62
S'/Applications/web2py.app/Contents/Resources/gluon/dal.py'
p98
sg64
(dp99
sg66
I8384
sg67
(dp100
I8384
S'            table = self.lazy_define_table(tablename, *fields, **args)'
p101
sI8385
S'        if not tablename in self.tables:'
p102
sI8386
S'            self.tables.append(tablename)'
p103
sI8387
S'        return table'
p104
sI8388
S''
sI8379
S'                    % (tablename, invalid_args))'
p105
sI8380
S'        if self._lazy_tables and not tablename in self._LAZY_TABLES:'
p106
sI8381
S'            self._LAZY_TABLES[tablename] = (tablename, fields, args)'
p107
sI8382
S'            table = None'
p108
sI8383
S'        else:'
p109
ssg79
S'(self=<DAL uri="sqlite://storage.sqlite">, tablename=\'problem_constant_test\', *fields=(<gluon.dal.Field object>, <gluon.dal.Field object>, <gluon.dal.Field object>, <gluon.dal.Field object>, <gluon.dal.Field object>), **args={})'
p110
sg81
S'define_table'
p111
sa(dp112
g62
S'/Applications/web2py.app/Contents/Resources/gluon/dal.py'
p113
sg64
(dp114
sg66
I8420
sg67
(dp115
I8416
S'                GLOBAL_LOCKER.acquire()'
p116
sI8417
S'                self._lastsql = self._adapter.create_table('
p117
sI8418
S'                    table, migrate=migrate,'
p118
sI8419
S'                    fake_migrate=fake_migrate,'
p119
sI8420
S'                    polymodel=polymodel)'
p120
sI8421
S'            finally:'
p121
sI8422
S'                GLOBAL_LOCKER.release()'
p122
sI8423
S'        else:'
p123
sI8424
S'            table._dbt = None'
p124
sI8415
S'            try:'
p125
ssg79
S'(self=<DAL uri="sqlite://storage.sqlite">, tablename=\'problem_constant_test\', *fields=(<gluon.dal.Field object>, <gluon.dal.Field object>, <gluon.dal.Field object>, <gluon.dal.Field object>, <gluon.dal.Field object>), **args={})'
p126
sg81
S'lazy_define_table'
p127
sa(dp128
g62
S'/Applications/web2py.app/Contents/Resources/gluon/dal.py'
p129
sg64
(dp130
sg66
I930
sg67
(dp131
I928
S'                    except Exception, e:'
p132
sI929
S"                        LOGGER.debug('Error: %s' %e)"
p133
sI930
S"                        raise KeyError('Cannot resolve reference %s in %s definition' % (referenced, table._tablename))"
p134
sI931
S''
sI932
S'                # must be PK reference or unique'
p135
sI933
S"                if getattr(rtable, '_primarykey', None) and rfieldname in rtable._primarykey or \\"
p136
sI934
S'                        rfield.unique:'
p137
sI925
S"                        rtablename, rfieldname = referenced.split('.')"
p138
sI926
S'                        rtable = db[rtablename]'
p139
sI927
S'                        rfield = rtable[rfieldname]'
p140
ssg79
S'(self=<gluon.dal.SQLiteAdapter object>, table=<Table problem_constant_test (id,problem_id,user_id,problem_type_id,problem_given,constant)>, migrate=True, fake_migrate=False, polymodel=None)'
p141
sg81
S'create_table'
p142
sasS'pyver'
p143
S'Python 2.7.3: /Applications/web2py.app/Contents/MacOS/python (prefix: /Applications/web2py.app/Contents/Resources)'
p144
sS'session'
p145
g57
(S's\x1a\x00\x00\x00<div><table></table></div>'
tRp146
sS'etype'
p147
S"<type 'exceptions.KeyError'>"
p148
sS'date'
p149
S'Sun Dec 13 18:22:40 2015'
p150
sS'response'
p151
g57
(S's7\x18\x00\x00<div><table><tr><td style="font-weight:bold;vertical-align:top;">body</td><td style="vertical-align:top;">:</td><td><div>&lt;cStringIO.StringO object at 0x1074b46c0&gt;</div></td></tr><tr><td style="font-weight:bold;vertical-align:top;">cookies</td><td style="vertical-align:top;">:</td><td><div><table><tr><td style="font-weight:bold;vertical-align:top;">session_id_worksheet_app</td><td style="vertical-align:top;">:</td><td><div>127.0.0.1-b3a54700-715a-413a-8c34-234824f3f305<table><tr><td style="font-weight:bold;vertical-align:top;">comment</td><td style="vertical-align:top;">:</td><td><div></div></td></tr><tr><td style="font-weight:bold;vertical-align:top;">domain</td><td style="vertical-align:top;">:</td><td><div></div></td></tr><tr><td style="font-weight:bold;vertical-align:top;">expires</td><td style="vertical-align:top;">:</td><td><div></div></td></tr><tr><td style="font-weight:bold;vertical-align:top;">httponly</td><td style="vertical-align:top;">:</td><td><div></div></td></tr><tr><td style="font-weight:bold;vertical-align:top;">max-age</td><td style="vertical-align:top;">:</td><td><div></div></td></tr><tr><td style="font-weight:bold;vertical-align:top;">path</td><td style="vertical-align:top;">:</td><td><div>/</div></td></tr><tr><td style="font-weight:bold;vertical-align:top;">secure</td><td style="vertical-align:top;">:</td><td><div></div></td></tr><tr><td style="font-weight:bold;vertical-align:top;">version</td><td style="vertical-align:top;">:</td><td><div></div></td></tr></table></div></td></tr></table></div></td></tr><tr><td style="font-weight:bold;vertical-align:top;">delimiters</td><td style="vertical-align:top;">:</td><td><div><table><tr><td><div>{{</div></td></tr><tr><td><div>}}</div></td></tr></table></div></td></tr><tr><td style="font-weight:bold;vertical-align:top;">files</td><td style="vertical-align:top;">:</td><td><div><table></table></div></td></tr><tr><td style="font-weight:bold;vertical-align:top;">flash</td><td style="vertical-align:top;">:</td><td><div></div></td></tr><tr><td style="font-weight:bold;vertical-align:top;">form_label_separator</td><td style="vertical-align:top;">:</td><td><div>: </div></td></tr><tr><td style="font-weight:bold;vertical-align:top;">formstyle</td><td style="vertical-align:top;">:</td><td><div>table3cols</div></td></tr><tr><td style="font-weight:bold;vertical-align:top;">generic_patterns</td><td style="vertical-align:top;">:</td><td><div><table><tr><td><div>*</div></td></tr></table></div></td></tr><tr><td style="font-weight:bold;vertical-align:top;">headers</td><td style="vertical-align:top;">:</td><td><div><table><tr><td style="font-weight:bold;vertical-align:top;">X-Powered-By</td><td style="vertical-align:top;">:</td><td><div>web2py</div></td></tr></table></div></td></tr><tr><td style="font-weight:bold;vertical-align:top;">menu</td><td style="vertical-align:top;">:</td><td><div><table></table></div></td></tr><tr><td style="font-weight:bold;vertical-align:top;">meta</td><td style="vertical-align:top;">:</td><td><div><table></table></div></td></tr><tr><td style="font-weight:bold;vertical-align:top;">models_to_run</td><td style="vertical-align:top;">:</td><td><div><table><tr><td><div>^\\w+\\.py$</div></td></tr><tr><td><div>^appadmin/\\w+\\.py$</div></td></tr><tr><td><div>^appadmin/index/\\w+\\.py$</div></td></tr></table></div></td></tr><tr><td style="font-weight:bold;vertical-align:top;">postprocessing</td><td style="vertical-align:top;">:</td><td><div><table></table></div></td></tr><tr><td style="font-weight:bold;vertical-align:top;">session_client</td><td style="vertical-align:top;">:</td><td><div>127.0.0.1</div></td></tr><tr><td style="font-weight:bold;vertical-align:top;">session_cookie_compression_level</td><td style="vertical-align:top;">:</td><td><div>None</div></td></tr><tr><td style="font-weight:bold;vertical-align:top;">session_cookie_expires</td><td style="vertical-align:top;">:</td><td><div>None</div></td></tr><tr><td style="font-weight:bold;vertical-align:top;">session_cookie_key</td><td style="vertical-align:top;">:</td><td><div>None</div></td></tr><tr><td style="font-weight:bold;vertical-align:top;">session_data_name</td><td style="vertical-align:top;">:</td><td><div>session_data_worksheet_app</div></td></tr><tr><td style="font-weight:bold;vertical-align:top;">session_file</td><td style="vertical-align:top;">:</td><td><div>&lt;open file &#x27;/Applications/web2py.app/Contents/Resources/applications/Worksheet_App/sessions/127.0.0.1-b3a54700-715a-413a-8c34-234824f3f305&#x27;, mode &#x27;rb+&#x27; at 0x1075e2f60&gt;</div></td></tr><tr><td style="font-weight:bold;vertical-align:top;">session_filename</td><td style="vertical-align:top;">:</td><td><div>/Applications/web2py.app/Contents/Resources/applications/Worksheet_App/sessions/127.0.0.1-b3a54700-715a-413a-8c34-234824f3f305</div></td></tr><tr><td style="font-weight:bold;vertical-align:top;">session_hash</td><td style="vertical-align:top;">:</td><td><div>dca865a08cc949d25766d44a13feeac6</div></td></tr><tr><td style="font-weight:bold;vertical-align:top;">session_id</td><td style="vertical-align:top;">:</td><td><div>127.0.0.1-b3a54700-715a-413a-8c34-234824f3f305</div></td></tr><tr><td style="font-weight:bold;vertical-align:top;">session_id_name</td><td style="vertical-align:top;">:</td><td><div>session_id_worksheet_app</div></td></tr><tr><td style="font-weight:bold;vertical-align:top;">session_locked</td><td style="vertical-align:top;">:</td><td><div>True</div></td></tr><tr><td style="font-weight:bold;vertical-align:top;">session_masterapp</td><td style="vertical-align:top;">:</td><td><div>Worksheet_App</div></td></tr><tr><td style="font-weight:bold;vertical-align:top;">session_new</td><td style="vertical-align:top;">:</td><td><div>False</div></td></tr><tr><td style="font-weight:bold;vertical-align:top;">session_storage_type</td><td style="vertical-align:top;">:</td><td><div>file</div></td></tr><tr><td style="font-weight:bold;vertical-align:top;">status</td><td style="vertical-align:top;">:</td><td><div>200</div></td></tr><tr><td style="font-weight:bold;vertical-align:top;">view</td><td style="vertical-align:top;">:</td><td><div>appadmin/index.html</div></td></tr></table></div>'
tRp152
sS'locals'
p153
(dp154
S'rtablename'
p155
S"'problem_type_test'"
p156
sS'referenced'
p157
S"'problem_tye_given_test'"
p158
sS'migrate'
p159
S'True'
p160
sS'constraint_name'
p161
S"'problem_constant_test_problem_given__constraint'"
p162
sS'table'
p163
S'<Table problem_constant_test (id,problem_id,user_id,problem_type_id,problem_given,constant)>'
p164
sS'real_referenced'
p165
S"'problem_type_test'"
p166
sS'postcreation_fields'
p167
S'[]'
p168
sS'field_type'
p169
S"'reference problem_tye_given_test'"
p170
sS'self'
p171
S'<gluon.dal.SQLiteAdapter object>'
p172
sS'tablename'
p173
S"'problem_constant_test'"
p174
sS'field'
p175
S'<gluon.dal.Field object>'
p176
sS'ftype'
p177
S"'INTEGER REFERENCES problem_type_test (id) ON DELETE CASCADE'"
p178
sS'rtable'
p179
S'<Table problem_type_test (id,teacher_id,name,num_givens,prompt,sol_alg)>'
p180
sS'id_fieldname'
p181
S"'id'"
p182
sS'polymodel'
p183
S'None'
p184
sS'rfieldname'
p185
S"'id'"
p186
sS'db'
p187
S'<DAL uri="sqlite://storage.sqlite">'
p188
sS'fake_migrate'
p189
S'False'
p190
sS'sortable'
p191
S'5'
sS'sql_fields'
p192
S"{'id': {'length': 512, 'notnull': False, 'sortable': 1, 'sql': 'INTEGER PRIMARY KEY AUTOINCREMENT', 'type': 'id', 'unique': False}, 'problem_id': {'length': 512, 'notnull': False, 'sortable': 2, 'sql': 'INTEGER REFERENCES problem_test (id) ON DELETE CASCADE', 'type': 'reference problem_test', 'unique': False}, 'problem_type_id': {'length': 512, 'notnull': False, 'sortable': 4, 'sql': 'INTEGER REFERENCES problem_type_test (id) ON DELETE CASCADE', 'type': 'reference problem_type_test', 'unique': False}, 'user_id': {'length': 512, 'notnull': False, 'sortable': 3, 'sql': 'INTEGER REFERENCES auth_user (id) ON DELETE CASCADE', 'type': 'reference auth_user', 'unique': False}}"
p193
sS'field_name'
p194
S"'problem_given'"
p195
sS'types'
p196
S"{'big-id': 'BIGINT PRIMARY KEY AUTOINCREMENT', 'big-reference': 'BIGINT REFERENCES %(foreign_key)s ON DELETE %(on_delete_action)s', 'bigint': 'INTEGER', 'blob': 'BLOB', 'boolean': 'CHAR(1)', 'date': 'DATE', 'datetime': 'TIMESTAMP', 'decimal': 'DOUBLE', 'double': 'DOUBLE', 'float': 'DOUBLE', ...}"
p197
sS'e'
S"ValueError('need more than 1 value to unpack',)"
p198
sS'sql_fields_aux'
p199
S"{'id': {'sql': 'INTEGER PRIMARY KEY AUTOINCREMENT'}, 'problem_id': {'sql': 'INTEGER REFERENCES problem_test (id) ON DELETE CASCADE'}, 'problem_type_id': {'sql': 'INTEGER REFERENCES problem_type_test (id) ON DELETE CASCADE'}, 'user_id': {'sql': 'INTEGER REFERENCES auth_user (id) ON DELETE CASCADE'}}"
p200
sS'TFK'
p201
g45
sS'fields'
p202
S"['id INTEGER PRIMARY KEY AUTOINCREMENT', 'problem_id INTEGER REFERENCES problem_test (id) ON DELETE CASCADE', 'user_id INTEGER REFERENCES auth_user (id) ON DELETE CASCADE', 'problem_type_id INTEGER REFERENCES problem_type_test (id) ON DELETE CASCADE']"
p203
sS'rfield'
p204
S'<gluon.dal.Field object>'
p205
sssS'traceback'
p206
S'Traceback (most recent call last):\n  File "/Applications/web2py.app/Contents/Resources/gluon/restricted.py", line 221, in restricted\n  File "/Applications/web2py.app/Contents/Resources/applications/Worksheet_App/models/db.py", line 123, in <module>\n  File "/Applications/web2py.app/Contents/Resources/gluon/dal.py", line 8384, in define_table\n  File "/Applications/web2py.app/Contents/Resources/gluon/dal.py", line 8420, in lazy_define_table\n  File "/Applications/web2py.app/Contents/Resources/gluon/dal.py", line 930, in create_table\nKeyError: \'Cannot resolve reference problem_tye_given_test in problem_constant_test definition\'\n'
p207
s.